(dp1
S'DOWN'
p2
(lp3
(I589
I490
tp4
a(I615
I295
tp5
a(I723
I470
tp6
a(I754
I298
tp7
a(I771
I467
tp8
a(I672
I277
tp9
a(I735
I343
tp10
a(I784
I195
tp11
a(I721
I297
tp12
a(I693
I275
tp13
a(I815
I249
tp14
a(I776
I210
tp15
a(I521
I325
tp16
a(I438
I268
tp17
a(I354
I340
tp18
a(I379
I237
tp19
a(I462
I298
tp20
a(I305
I322
tp21
a(I274
I376
tp22
a(I351
I479
tp23
a(I220
I461
tp24
a(I214
I423
tp25
a(I102
I505
tp26
a(I131
I514
tp27
a(I128
I539
tp28
a(I146
I476
tp29
a(I158
I593
tp30
a(I187
I384
tp31
a(I59
I650
tp32
a(I123
I441
tp33
a(I26
I507
tp34
a(I229
I353
tp35
a(I160
I454
tp36
a(I344
I412
tp37
a(I296
I438
tp38
a(I351
I431
tp39
a(I299
I387
tp40
a(I476
I484
tp41
a(I508
I392
tp42
a(I395
I563
tp43
a(I476
I370
tp44
a(I475
I539
tp45
a(I382
I380
tp46
a(I407
I486
tp47
a(I283
I405
tp48
a(I110
I586
tp49
a(I187
I376
tp50
a(I223
I567
tp51
a(I3
I440
tp52
a(I2
I578
tp53
a(I2
I372
tp54
a(I2
I480
tp55
a(I2
I558
tp56
a(I2
I465
tp57
a(I2
I510
tp58
a(I2
I408
tp59
a(I2
I368
tp60
a(I2
I428
tp61
a(I2
I364
tp62
a(I2
I488
tp63
a(I2
I609
tp64
a(I2
I467
tp65
a(I2
I486
tp66
a(I2
I346
tp67
a(I2
I419
tp68
a(I2
I482
tp69
a(I2
I388
tp70
a(I2
I479
tp71
a(I2
I560
tp72
a(I2
I381
tp73
a(I2
I483
tp74
a(I2
I418
tp75
a(I2
I459
tp76
a(I2
I513
tp77
a(I2
I508
tp78
a(I2
I454
tp79
a(I2
I335
tp80
a(I2
I361
tp81
a(I2
I436
tp82
a(I2
I493
tp83
a(I2
I487
tp84
a(I2
I579
tp85
a(I2
I473
tp86
a(I2
I567
tp87
a(I2
I422
tp88
a(I2
I476
tp89
a(I2
I573
tp90
a(I2
I578
tp91
a(I2
I647
tp92
a(I2
I610
tp93
a(I2
I594
tp94
a(I2
I655
tp95
a(I2
I686
tp96
a(I2
I722
tp97
a(I57
I764
tp98
a(I2
I828
tp99
a(I700
I847
tp100
a(I2
I789
tp101
a(I596
I860
tp102
a(I2
I652
tp103
asS'LEFT'
p104
(lp105
(I2
I760
tp106
a(I464
I862
tp107
a(I250
I854
tp108
a(I464
I862
tp109
a(I878
I844
tp110
a(I464
I862
tp111
a(I885
I862
tp112
a(I464
I862
tp113
a(I880
I862
tp114
a(I464
I862
tp115
a(I546
I862
tp116
a(I464
I862
tp117
a(I1
I817
tp118
a(I464
I862
tp119
a(I1
I700
tp120
a(I2
I853
tp121
a(I464
I862
tp122
a(I2
I783
tp123
a(I464
I862
tp124
a(I1
I823
tp125
a(I464
I862
tp126
a(I2
I700
tp127
a(I1
I799
tp128
a(I464
I862
tp129
a(I3
I729
tp130
a(I464
I862
tp131
a(I82
I771
tp132
a(I464
I862
tp133
a(I57
I699
tp134
a(I881
I862
tp135
a(I65
I685
tp136
a(I375
I820
tp137
a(I349
I836
tp138
a(I113
I771
tp139
a(I464
I862
tp140
a(I199
I766
tp141
a(I464
I862
tp142
a(I3
I704
tp143
a(I384
I759
tp144
a(I2
I801
tp145
a(I884
I861
tp146
a(I180
I810
tp147
a(I880
I858
tp148
a(I453
I712
tp149
a(I880
I863
tp150
a(I485
I777
tp151
a(I882
I854
tp152
a(I463
I657
tp153
a(I866
I831
tp154
a(I820
I592
tp155
a(I872
I810
tp156
a(I867
I675
tp157
a(I871
I797
tp158
a(I869
I534
tp159
a(I869
I855
tp160
a(I861
I519
tp161
a(I874
I808
tp162
a(I863
I542
tp163
a(I875
I816
tp164
a(I867
I608
tp165
a(I874
I815
tp166
a(I870
I697
tp167
a(I868
I755
tp168
a(I873
I729
tp169
a(I867
I725
tp170
a(I878
I832
tp171
a(I866
I702
tp172
a(I880
I849
tp173
a(I871
I681
tp174
a(I890
I862
tp175
a(I866
I682
tp176
a(I874
I822
tp177
a(I869
I662
tp178
a(I880
I853
tp179
a(I866
I633
tp180
a(I878
I816
tp181
a(I866
I635
tp182
a(I873
I833
tp183
a(I871
I695
tp184
a(I872
I817
tp185
a(I872
I670
tp186
a(I873
I783
tp187
a(I874
I706
tp188
a(I871
I792
tp189
a(I865
I745
tp190
a(I875
I795
tp191
a(I863
I816
tp192
a(I868
I772
tp193
a(I865
I747
tp194
a(I871
I690
tp195
a(I863
I713
tp196
a(I866
I803
tp197
a(I866
I710
tp198
a(I868
I814
tp199
a(I1
I682
tp200
a(I1
I784
tp201
a(I1
I795
tp202
a(I1
I774
tp203
a(I1
I739
tp204
a(I2
I625
tp205
asS'RIGHT'
p206
(lp207
(I1
I682
tp208
a(I2
I706
tp209
a(I1
I789
tp210
a(I1
I802
tp211
a(I1
I676
tp212
a(I2
I621
tp213
a(I1
I701
tp214
a(I2
I558
tp215
a(I1
I742
tp216
a(I2
I683
tp217
a(I1
I763
tp218
a(I1
I823
tp219
a(I2
I458
tp220
a(I2
I620
tp221
a(I1
I778
tp222
a(I2
I598
tp223
a(I1
I836
tp224
a(I1
I745
tp225
a(I2
I699
tp226
a(I1
I712
tp227
a(I2
I514
tp228
a(I2
I602
tp229
a(I1
I707
tp230
a(I873
I749
tp231
a(I879
I695
tp232
a(I859
I681
tp233
a(I872
I773
tp234
a(I2
I661
tp235
a(I874
I688
tp236
a(I1
I520
tp237
a(I1
I621
tp238
a(I877
I719
tp239
a(I1
I587
tp240
a(I870
I761
tp241
a(I2
I638
tp242
a(I1
I725
tp243
a(I877
I743
tp244
a(I1
I607
tp245
a(I1
I613
tp246
a(I1
I622
tp247
a(I1
I671
tp248
a(I1
I730
tp249
a(I1
I586
tp250
a(I1
I713
tp251
a(I1
I519
tp252
a(I1
I604
tp253
a(I1
I696
tp254
a(I2
I566
tp255
a(I1
I692
tp256
a(I1
I501
tp257
a(I1
I481
tp258
a(I1
I589
tp259
a(I1
I557
tp260
a(I1
I554
tp261
a(I1
I639
tp262
a(I1
I545
tp263
a(I1
I551
tp264
a(I1
I390
tp265
a(I2
I438
tp266
a(I863
I477
tp267
a(I863
I405
tp268
a(I863
I476
tp269
a(I860
I481
tp270
a(I857
I467
tp271
a(I858
I522
tp272
a(I856
I478
tp273
a(I859
I541
tp274
a(I861
I488
tp275
a(I861
I548
tp276
a(I857
I572
tp277
a(I854
I589
tp278
a(I860
I532
tp279
a(I857
I552
tp280
a(I859
I712
tp281
a(I858
I543
tp282
a(I858
I673
tp283
a(I855
I556
tp284
a(I862
I643
tp285
a(I857
I392
tp286
a(I859
I466
tp287
a(I858
I255
tp288
a(I862
I224
tp289
a(I862
I4
tp290
a(I865
I4
tp291
a(I866
I88
tp292
a(I866
I101
tp293
a(I866
I235
tp294
a(I872
I230
tp295
a(I866
I227
tp296
a(I863
I254
tp297
a(I869
I289
tp298
a(I872
I353
tp299
a(I880
I417
tp300
a(I863
I319
tp301
a(I875
I503
tp302
a(I865
I416
tp303
a(I0
I543
tp304
a(I1
I306
tp305
a(I1
I383
tp306
a(I1
I521
tp307
asS'DOWN-RIGHT'
p308
(lp309
(I1
I428
tp310
a(I1
I494
tp311
a(I1
I571
tp312
a(I1
I452
tp313
a(I1
I579
tp314
a(I1
I454
tp315
a(I1
I490
tp316
a(I1
I549
tp317
a(I1
I459
tp318
a(I1
I510
tp319
a(I1
I415
tp320
a(I2
I467
tp321
a(I857
I562
tp322
a(I857
I584
tp323
a(I336
I685
tp324
a(I336
I708
tp325
a(I1
I726
tp326
a(I1
I783
tp327
a(I857
I833
tp328
a(I857
I774
tp329
a(I857
I690
tp330
a(I857
I797
tp331
a(I857
I673
tp332
a(I857
I779
tp333
a(I857
I668
tp334
a(I857
I746
tp335
a(I857
I640
tp336
a(I857
I777
tp337
a(I857
I636
tp338
a(I857
I770
tp339
a(I857
I677
tp340
a(I857
I756
tp341
a(I856
I667
tp342
a(I857
I719
tp343
a(I857
I691
tp344
a(I857
I687
tp345
a(I857
I697
tp346
a(I857
I711
tp347
a(I856
I670
tp348
a(I855
I703
tp349
a(I860
I649
tp350
a(I2
I673
tp351
a(I2
I601
tp352
a(I1
I719
tp353
a(I1
I752
tp354
a(I1
I676
tp355
a(I1
I697
tp356
a(I1
I547
tp357
a(I1
I618
tp358
a(I1
I663
tp359
a(I1
I633
tp360
a(I1
I657
tp361
a(I1
I677
tp362
a(I1
I585
tp363
a(I1
I636
tp364
a(I1
I527
tp365
a(I1
I574
tp366
a(I1
I631
tp367
a(I1
I581
tp368
a(I1
I627
tp369
a(I1
I501
tp370
a(I1
I507
tp371
a(I1
I510
tp372
a(I1
I425
tp373
a(I1
I475
tp374
a(I1
I517
tp375
a(I1
I437
tp376
a(I1
I487
tp377
a(I860
I354
tp378
a(I465
I502
tp379
a(I872
I386
tp380
a(I465
I509
tp381
a(I465
I450
tp382
a(I465
I493
tp383
a(I465
I493
tp384
a(I476
I492
tp385
a(I465
I513
tp386
a(I886
I463
tp387
a(I465
I528
tp388
a(I876
I417
tp389
a(I465
I527
tp390
a(I870
I411
tp391
a(I465
I512
tp392
a(I874
I445
tp393
a(I465
I494
tp394
a(I870
I418
tp395
a(I880
I491
tp396
a(I869
I415
tp397
a(I878
I499
tp398
a(I877
I433
tp399
a(I878
I464
tp400
a(I877
I478
tp401
a(I875
I468
tp402
a(I874
I474
tp403
a(I881
I512
tp404
a(I873
I459
tp405
a(I883
I525
tp406
a(I879
I529
tp407
a(I883
I498
tp408
a(I881
I547
tp409
asS'DOWN-LEFT'
p410
(lp411
(I769
I536
tp412
a(I866
I490
tp413
a(I884
I536
tp414
a(I875
I432
tp415
a(I466
I568
tp416
a(I874
I432
tp417
a(I466
I512
tp418
a(I870
I414
tp419
a(I774
I476
tp420
a(I872
I459
tp421
a(I790
I539
tp422
a(I868
I368
tp423
a(I883
I536
tp424
a(I866
I395
tp425
a(I884
I522
tp426
a(I862
I385
tp427
a(I879
I498
tp428
a(I869
I374
tp429
a(I881
I514
tp430
a(I865
I370
tp431
a(I879
I515
tp432
a(I866
I399
tp433
a(I880
I491
tp434
a(I869
I399
tp435
a(I874
I505
tp436
a(I874
I492
tp437
a(I870
I490
tp438
a(I466
I558
tp439
a(I868
I477
tp440
a(I466
I573
tp441
a(I870
I479
tp442
a(I466
I573
tp443
a(I871
I470
tp444
a(I468
I588
tp445
a(I870
I446
tp446
a(I880
I528
tp447
a(I869
I450
tp448
a(I879
I545
tp449
a(I869
I444
tp450
a(I879
I562
tp451
a(I871
I473
tp452
a(I873
I502
tp453
a(I872
I479
tp454
a(I871
I476
tp455
a(I869
I490
tp456
a(I873
I503
tp457
a(I876
I531
tp458
a(I878
I559
tp459
a(I873
I510
tp460
a(I873
I492
tp461
a(I875
I520
tp462
a(I880
I590
tp463
a(I876
I549
tp464
a(I879
I579
tp465
a(I870
I531
tp466
a(I466
I588
tp467
a(I881
I426
tp468
a(I467
I501
tp469
a(I876
I476
tp470
a(I467
I496
tp471
a(I865
I414
tp472
a(I467
I519
tp473
a(I868
I388
tp474
a(I466
I535
tp475
a(I868
I427
tp476
a(I467
I530
tp477
a(I866
I370
tp478
a(I467
I524
tp479
a(I868
I390
tp480
a(I469
I532
tp481
a(I867
I385
tp482
a(I467
I533
tp483
a(I868
I381
tp484
a(I482
I510
tp485
a(I877
I456
tp486
a(I880
I510
tp487
a(I467
I511
tp488
a(I875
I481
tp489
a(I467
I552
tp490
a(I873
I457
tp491
a(I467
I569
tp492
a(I699
I492
tp493
a(I667
I651
tp494
a(I870
I617
tp495
a(I867
I717
tp496
a(I865
I583
tp497
a(I874
I670
tp498
a(I865
I589
tp499
a(I867
I737
tp500
a(I851
I536
tp501
a(I837
I616
tp502
a(I673
I527
tp503
a(I698
I619
tp504
a(I732
I558
tp505
a(I742
I608
tp506
a(I699
I492
tp507
a(I667
I651
tp508
a(I610
I517
tp509
a(I572
I611
tp510
a(I633
I487
tp511
asS'UP-LEFT'
p512
(lp513
(I783
I642
tp514
a(I750
I481
tp515
a(I741
I602
tp516
a(I718
I486
tp517
a(I544
I641
tp518
a(I460
I532
tp519
a(I372
I639
tp520
a(I348
I618
tp521
a(I313
I566
tp522
a(I370
I681
tp523
a(I287
I560
tp524
a(I409
I699
tp525
a(I296
I591
tp526
a(I377
I708
tp527
a(I325
I573
tp528
a(I343
I644
tp529
a(I362
I612
tp530
a(I566
I637
tp531
a(I427
I536
tp532
a(I616
I665
tp533
a(I556
I576
tp534
a(I619
I658
tp535
a(I533
I590
tp536
a(I720
I664
tp537
a(I521
I657
tp538
a(I708
I630
tp539
a(I653
I528
tp540
a(I615
I656
tp541
a(I543
I623
tp542
a(I557
I588
tp543
a(I442
I695
tp544
a(I386
I702
tp545
a(I205
I539
tp546
a(I269
I768
tp547
a(I187
I625
tp548
a(I258
I650
tp549
a(I281
I588
tp550
a(I239
I750
tp551
a(I179
I654
tp552
a(I17
I654
tp553
a(I2
I495
tp554
a(I2
I587
tp555
a(I2
I704
tp556
a(I2
I690
tp557
a(I2
I689
tp558
a(I2
I491
tp559
a(I2
I503
tp560
a(I2
I745
tp561
a(I2
I662
tp562
a(I2
I600
tp563
a(I1
I759
tp564
a(I2
I527
tp565
a(I2
I752
tp566
a(I2
I495
tp567
a(I2
I553
tp568
a(I2
I696
tp569
a(I2
I524
tp570
a(I2
I706
tp571
a(I1
I745
tp572
a(I2
I562
tp573
a(I2
I688
tp574
a(I2
I521
tp575
a(I2
I585
tp576
a(I2
I636
tp577
a(I2
I672
tp578
a(I2
I714
tp579
a(I2
I481
tp580
a(I2
I549
tp581
a(I2
I680
tp582
a(I2
I663
tp583
a(I2
I632
tp584
a(I2
I695
tp585
a(I2
I600
tp586
a(I2
I583
tp587
a(I2
I451
tp588
a(I2
I583
tp589
a(I2
I576
tp590
a(I2
I480
tp591
a(I2
I629
tp592
a(I2
I638
tp593
a(I2
I572
tp594
a(I2
I701
tp595
a(I2
I532
tp596
a(I2
I637
tp597
a(I2
I611
tp598
a(I2
I561
tp599
a(I2
I657
tp600
a(I2
I439
tp601
a(I2
I567
tp602
a(I2
I582
tp603
a(I2
I529
tp604
a(I2
I664
tp605
a(I2
I664
tp606
a(I2
I564
tp607
a(I2
I741
tp608
a(I2
I394
tp609
a(I2
I541
tp610
a(I2
I596
tp611
a(I2
I508
tp612
a(I2
I640
tp613
asS'UP'
p614
(lp615
(I2
I620
tp616
a(I2
I528
tp617
a(I2
I601
tp618
a(I2
I543
tp619
a(I2
I606
tp620
a(I2
I639
tp621
a(I3
I537
tp622
a(I260
I600
tp623
a(I598
I459
tp624
a(I863
I631
tp625
a(I861
I520
tp626
a(I865
I674
tp627
a(I863
I507
tp628
a(I863
I634
tp629
a(I848
I522
tp630
a(I605
I656
tp631
a(I704
I480
tp632
a(I485
I600
tp633
a(I122
I440
tp634
a(I2
I561
tp635
a(I2
I706
tp636
a(I2
I616
tp637
a(I2
I625
tp638
a(I2
I475
tp639
a(I2
I494
tp640
a(I2
I615
tp641
a(I2
I617
tp642
a(I2
I589
tp643
a(I2
I701
tp644
a(I2
I572
tp645
a(I2
I564
tp646
a(I2
I490
tp647
a(I2
I499
tp648
a(I2
I656
tp649
a(I2
I703
tp650
a(I2
I629
tp651
a(I2
I522
tp652
a(I2
I533
tp653
a(I1
I597
tp654
a(I2
I510
tp655
a(I2
I632
tp656
a(I2
I709
tp657
a(I2
I585
tp658
a(I2
I665
tp659
a(I2
I414
tp660
a(I2
I514
tp661
a(I2
I592
tp662
a(I2
I523
tp663
a(I2
I635
tp664
a(I2
I672
tp665
a(I2
I531
tp666
a(I2
I654
tp667
a(I2
I413
tp668
a(I2
I567
tp669
a(I126
I650
tp670
a(I158
I518
tp671
a(I230
I593
tp672
a(I273
I558
tp673
a(I512
I632
tp674
a(I350
I549
tp675
a(I285
I611
tp676
a(I115
I573
tp677
a(I2
I695
tp678
a(I2
I615
tp679
a(I2
I653
tp680
a(I2
I701
tp681
a(I2
I587
tp682
a(I2
I668
tp683
a(I2
I475
tp684
a(I2
I547
tp685
a(I2
I610
tp686
a(I1
I617
tp687
a(I2
I745
tp688
a(I1
I742
tp689
a(I2
I548
tp690
a(I2
I671
tp691
a(I2
I496
tp692
a(I2
I551
tp693
a(I1
I741
tp694
a(I2
I609
tp695
a(I2
I736
tp696
a(I2
I533
tp697
a(I2
I475
tp698
a(I2
I620
tp699
a(I2
I508
tp700
a(I2
I612
tp701
a(I2
I759
tp702
a(I2
I543
tp703
a(I2
I698
tp704
a(I2
I470
tp705
a(I2
I521
tp706
a(I2
I599
tp707
a(I2
I638
tp708
a(I2
I633
tp709
a(I1
I719
tp710
a(I2
I582
tp711
a(I2
I567
tp712
a(I2
I496
tp713
a(I2
I535
tp714
a(I2
I667
tp715
asS'UP-RIGHT'
p716
(lp717
(I2
I662
tp718
a(I2
I680
tp719
a(I2
I530
tp720
a(I2
I552
tp721
a(I2
I626
tp722
a(I2
I504
tp723
a(I2
I665
tp724
a(I2
I733
tp725
a(I2
I713
tp726
a(I2
I647
tp727
a(I2
I400
tp728
a(I2
I547
tp729
a(I2
I625
tp730
a(I2
I533
tp731
a(I2
I504
tp732
a(I2
I539
tp733
a(I2
I417
tp734
a(I2
I417
tp735
a(I1
I217
tp736
a(I2
I321
tp737
a(I2
I406
tp738
a(I2
I403
tp739
a(I2
I492
tp740
a(I2
I383
tp741
a(I2
I391
tp742
a(I2
I442
tp743
a(I33
I390
tp744
a(I141
I457
tp745
a(I238
I321
tp746
a(I132
I472
tp747
a(I136
I336
tp748
a(I33
I503
tp749
a(I33
I468
tp750
a(I25
I398
tp751
a(I68
I483
tp752
a(I175
I458
tp753
a(I226
I453
tp754
a(I319
I432
tp755
a(I332
I526
tp756
a(I372
I465
tp757
a(I355
I474
tp758
a(I344
I466
tp759
a(I120
I505
tp760
a(I2
I478
tp761
a(I2
I483
tp762
a(I2
I524
tp763
a(I2
I433
tp764
a(I2
I530
tp765
a(I2
I431
tp766
a(I2
I440
tp767
a(I2
I511
tp768
a(I2
I493
tp769
a(I2
I495
tp770
a(I2
I458
tp771
a(I2
I411
tp772
a(I2
I520
tp773
a(I2
I445
tp774
a(I2
I463
tp775
a(I2
I569
tp776
a(I2
I499
tp777
a(I2
I500
tp778
a(I2
I401
tp779
a(I2
I434
tp780
a(I2
I484
tp781
a(I2
I413
tp782
a(I2
I468
tp783
a(I2
I524
tp784
a(I2
I461
tp785
a(I2
I532
tp786
a(I2
I429
tp787
a(I2
I456
tp788
a(I2
I512
tp789
a(I2
I535
tp790
a(I2
I466
tp791
a(I2
I423
tp792
a(I2
I436
tp793
a(I2
I475
tp794
a(I2
I431
tp795
a(I2
I488
tp796
a(I2
I559
tp797
a(I2
I485
tp798
a(I2
I550
tp799
a(I2
I386
tp800
a(I2
I455
tp801
a(I2
I514
tp802
a(I2
I382
tp803
a(I2
I510
tp804
a(I2
I491
tp805
a(I2
I453
tp806
a(I2
I467
tp807
a(I168
I385
tp808
a(I317
I544
tp809
a(I492
I438
tp810
a(I561
I530
tp811
a(I577
I375
tp812
a(I737
I520
tp813
a(I860
I382
tp814
a(I861
I505
tp815
a(I860
I398
tp816
a(I862
I493
tp817
asS'BLINK'
p818
(lp819
(I860
I393
tp820
a(I861
I487
tp821
a(I861
I470
tp822
a(I861
I465
tp823
a(I861
I501
tp824
a(I861
I453
tp825
a(I862
I508
tp826
a(I861
I433
tp827
a(I863
I545
tp828
a(I861
I431
tp829
a(I864
I541
tp830
a(I862
I443
tp831
a(I864
I531
tp832
a(I860
I441
tp833
a(I866
I529
tp834
a(I863
I425
tp835
a(I864
I511
tp836
a(I861
I440
tp837
a(I864
I520
tp838
a(I861
I487
tp839
a(I863
I472
tp840
a(I862
I493
tp841
a(I861
I500
tp842
a(I863
I530
tp843
a(I865
I526
tp844
a(I862
I550
tp845
a(I860
I524
tp846
a(I860
I517
tp847
a(I864
I464
tp848
a(I860
I527
tp849
a(I861
I532
tp850
a(I863
I445
tp851
a(I861
I509
tp852
a(I864
I426
tp853
a(I861
I553
tp854
a(I863
I405
tp855
a(I861
I531
tp856
a(I861
I374
tp857
a(I865
I469
tp858
a(I862
I407
tp859
a(I866
I543
tp860
a(I861
I396
tp861
a(I863
I506
tp862
a(I862
I391
tp863
a(I862
I456
tp864
a(I859
I398
tp865
a(I861
I498
tp866
a(I860
I382
tp867
a(I863
I509
tp868
a(I860
I365
tp869
a(I862
I511
tp870
a(I861
I430
tp871
a(I863
I534
tp872
a(I861
I448
tp873
a(I862
I474
tp874
a(I861
I486
tp875
a(I861
I454
tp876
a(I863
I525
tp877
a(I862
I435
tp878
a(I866
I528
tp879
a(I860
I447
tp880
a(I863
I557
tp881
a(I846
I406
tp882
a(I855
I555
tp883
a(I842
I426
tp884
a(I839
I519
tp885
a(I781
I434
tp886
a(I847
I568
tp887
a(I519
I450
tp888
a(I453
I515
tp889
a(I270
I483
tp890
a(I60
I527
tp891
a(I2
I475
tp892
a(I2
I547
tp893
a(I2
I400
tp894
a(I2
I431
tp895
a(I2
I520
tp896
a(I2
I457
tp897
a(I2
I500
tp898
a(I2
I561
tp899
a(I2
I459
tp900
a(I2
I499
tp901
a(I2
I339
tp902
a(I2
I418
tp903
a(I2
I475
tp904
a(I2
I416
tp905
a(I2
I482
tp906
a(I2
I497
tp907
a(I2
I427
tp908
a(I2
I521
tp909
a(I2
I471
tp910
a(I2
I503
tp911
a(I2
I511
tp912
a(I2
I539
tp913
a(I2
I567
tp914
a(I2
I393
tp915
a(I2
I464
tp916
a(I2
I518
tp917
a(I2
I520
tp918
a(I2
I564
tp919
as.