(dp1
S'DOWN'
p2
(lp3
I25256
asS'LEFT'
p4
(lp5
I257
asS'RIGHT'
p6
(lp7
I254
asS'DOWN-RIGHT'
p8
(lp9
I255
asS'DOWN-LEFT'
p10
(lp11
I255
asS'UP-LEFT'
p12
(lp13
I255
asS'UP'
p14
(lp15
I255
asS'UP-RIGHT'
p16
(lp17
I255
asS'BLINK'
p18
(lp19
I255
as.