(dp1
S'DOWN'
p2
(lp3
(I2
I846
tp4
a(I2
I846
tp5
a(I2
I846
tp6
a(I2
I846
tp7
a(I2
I846
tp8
a(I2
I846
tp9
a(I3
I846
tp10
a(I2
I846
tp11
a(I2
I846
tp12
a(I2
I846
tp13
a(I2
I846
tp14
a(I2
I846
tp15
a(I2
I846
tp16
a(I2
I846
tp17
a(I2
I846
tp18
a(I2
I846
tp19
a(I2
I846
tp20
a(I2
I846
tp21
a(I2
I847
tp22
a(I2
I846
tp23
a(I2
I846
tp24
a(I2
I846
tp25
a(I2
I847
tp26
a(I2
I846
tp27
a(I2
I846
tp28
a(I2
I847
tp29
a(I2
I846
tp30
a(I2
I846
tp31
a(I2
I846
tp32
a(I2
I846
tp33
a(I3
I846
tp34
a(I2
I846
tp35
a(I2
I846
tp36
a(I2
I846
tp37
a(I2
I847
tp38
a(I2
I846
tp39
a(I2
I846
tp40
a(I2
I846
tp41
a(I2
I846
tp42
a(I2
I847
tp43
a(I2
I847
tp44
a(I2
I846
tp45
a(I2
I846
tp46
a(I2
I846
tp47
a(I2
I846
tp48
a(I2
I846
tp49
a(I2
I846
tp50
a(I2
I846
tp51
a(I2
I846
tp52
a(I2
I846
tp53
a(I2
I846
tp54
a(I2
I846
tp55
a(I2
I846
tp56
a(I2
I846
tp57
a(I2
I846
tp58
a(I2
I846
tp59
a(I2
I846
tp60
a(I2
I846
tp61
a(I2
I846
tp62
a(I2
I846
tp63
a(I2
I846
tp64
a(I2
I846
tp65
a(I2
I846
tp66
a(I2
I846
tp67
a(I2
I846
tp68
a(I2
I846
tp69
a(I2
I846
tp70
a(I2
I846
tp71
a(I2
I846
tp72
a(I2
I846
tp73
a(I2
I846
tp74
a(I2
I846
tp75
a(I2
I846
tp76
a(I2
I846
tp77
a(I3
I846
tp78
a(I2
I846
tp79
a(I2
I846
tp80
a(I2
I846
tp81
a(I2
I846
tp82
a(I2
I846
tp83
a(I2
I846
tp84
a(I2
I846
tp85
a(I2
I846
tp86
a(I3
I846
tp87
a(I2
I846
tp88
a(I2
I846
tp89
a(I2
I846
tp90
a(I2
I846
tp91
a(I2
I846
tp92
a(I2
I846
tp93
a(I2
I846
tp94
a(I2
I846
tp95
a(I2
I847
tp96
a(I2
I846
tp97
a(I2
I846
tp98
a(I2
I845
tp99
a(I2
I846
tp100
a(I2
I846
tp101
a(I2
I846
tp102
a(I2
I846
tp103
a(I2
I846
tp104
a(I2
I846
tp105
a(I2
I846
tp106
a(I2
I847
tp107
a(I2
I846
tp108
a(I2
I846
tp109
a(I2
I846
tp110
a(I2
I846
tp111
a(I2
I846
tp112
a(I2
I846
tp113
a(I2
I846
tp114
a(I2
I847
tp115
a(I2
I846
tp116
a(I2
I846
tp117
a(I2
I846
tp118
a(I2
I846
tp119
a(I2
I846
tp120
a(I2
I847
tp121
a(I3
I846
tp122
a(I2
I846
tp123
a(I2
I846
tp124
a(I2
I846
tp125
a(I2
I846
tp126
a(I2
I846
tp127
a(I1
I846
tp128
a(I2
I846
tp129
a(I2
I846
tp130
a(I2
I846
tp131
a(I2
I846
tp132
a(I2
I846
tp133
a(I2
I846
tp134
a(I2
I846
tp135
a(I2
I846
tp136
a(I2
I846
tp137
a(I2
I846
tp138
a(I2
I846
tp139
a(I2
I846
tp140
a(I2
I846
tp141
a(I2
I846
tp142
a(I2
I846
tp143
a(I2
I846
tp144
a(I2
I846
tp145
a(I2
I846
tp146
a(I2
I846
tp147
a(I2
I846
tp148
a(I2
I846
tp149
a(I2
I846
tp150
a(I3
I846
tp151
a(I2
I845
tp152
a(I2
I846
tp153
a(I2
I846
tp154
a(I2
I846
tp155
a(I2
I846
tp156
a(I2
I846
tp157
a(I2
I609
tp158
a(I2
I846
tp159
a(I2
I846
tp160
a(I2
I846
tp161
a(I2
I846
tp162
a(I2
I846
tp163
a(I3
I846
tp164
a(I2
I846
tp165
a(I2
I846
tp166
a(I3
I846
tp167
a(I2
I846
tp168
a(I2
I846
tp169
a(I2
I846
tp170
a(I2
I846
tp171
a(I2
I846
tp172
a(I2
I846
tp173
a(I2
I846
tp174
a(I2
I526
tp175
a(I2
I846
tp176
a(I2
I846
tp177
a(I2
I846
tp178
a(I2
I846
tp179
a(I2
I846
tp180
a(I3
I846
tp181
a(I2
I846
tp182
a(I2
I846
tp183
a(I2
I846
tp184
a(I2
I846
tp185
a(I2
I846
tp186
a(I2
I846
tp187
a(I2
I846
tp188
a(I2
I846
tp189
a(I2
I846
tp190
a(I2
I846
tp191
a(I2
I845
tp192
a(I3
I846
tp193
a(I2
I846
tp194
a(I3
I846
tp195
a(I2
I846
tp196
a(I2
I846
tp197
a(I2
I845
tp198
a(I2
I846
tp199
a(I2
I846
tp200
a(I2
I846
tp201
a(I2
I846
tp202
a(I2
I846
tp203
a(I2
I847
tp204
a(I2
I847
tp205
a(I2
I846
tp206
a(I2
I846
tp207
a(I2
I846
tp208
a(I2
I846
tp209
a(I2
I846
tp210
a(I2
I846
tp211
a(I2
I846
tp212
a(I2
I846
tp213
a(I2
I847
tp214
a(I2
I846
tp215
a(I2
I846
tp216
a(I2
I846
tp217
a(I2
I846
tp218
a(I2
I846
tp219
a(I2
I846
tp220
a(I2
I846
tp221
a(I2
I845
tp222
a(I2
I846
tp223
a(I2
I846
tp224
a(I2
I846
tp225
a(I2
I846
tp226
a(I2
I846
tp227
a(I2
I846
tp228
a(I1
I846
tp229
a(I2
I846
tp230
a(I2
I846
tp231
a(I2
I846
tp232
a(I2
I846
tp233
a(I2
I846
tp234
a(I2
I847
tp235
a(I2
I846
tp236
a(I2
I846
tp237
a(I2
I846
tp238
a(I2
I846
tp239
a(I2
I846
tp240
a(I2
I847
tp241
a(I2
I845
tp242
a(I2
I846
tp243
a(I2
I846
tp244
a(I2
I846
tp245
a(I1
I847
tp246
a(I2
I846
tp247
a(I2
I846
tp248
a(I2
I846
tp249
a(I2
I846
tp250
a(I2
I843
tp251
a(I2
I846
tp252
a(I3
I846
tp253
a(I2
I846
tp254
a(I2
I846
tp255
a(I2
I846
tp256
a(I2
I847
tp257
a(I3
I846
tp258
a(I2
I846
tp259
a(I2
I846
tp260
a(I2
I845
tp261
a(I2
I847
tp262
a(I2
I846
tp263
a(I2
I846
tp264
a(I2
I846
tp265
a(I2
I846
tp266
a(I2
I846
tp267
a(I2
I847
tp268
a(I2
I847
tp269
a(I2
I846
tp270
a(I2
I846
tp271
a(I2
I846
tp272
a(I2
I846
tp273
a(I2
I846
tp274
a(I2
I846
tp275
a(I2
I846
tp276
a(I3
I846
tp277
a(I2
I846
tp278
a(I2
I846
tp279
a(I2
I846
tp280
a(I2
I846
tp281
a(I2
I846
tp282
a(I2
I846
tp283
a(I2
I846
tp284
a(I2
I846
tp285
a(I2
I846
tp286
a(I2
I846
tp287
a(I2
I846
tp288
a(I2
I846
tp289
a(I2
I846
tp290
a(I2
I846
tp291
a(I2
I846
tp292
a(I2
I846
tp293
a(I2
I846
tp294
a(I2
I846
tp295
a(I2
I846
tp296
a(I2
I846
tp297
a(I2
I846
tp298
a(I2
I846
tp299
a(I2
I846
tp300
a(I2
I846
tp301
a(I2
I846
tp302
a(I2
I846
tp303
a(I1
I846
tp304
a(I2
I846
tp305
a(I2
I846
tp306
a(I2
I846
tp307
a(I2
I846
tp308
a(I2
I846
tp309
a(I2
I846
tp310
a(I2
I846
tp311
a(I2
I846
tp312
a(I2
I846
tp313
a(I2
I846
tp314
a(I2
I846
tp315
a(I2
I846
tp316
a(I2
I846
tp317
a(I2
I846
tp318
a(I2
I846
tp319
a(I2
I846
tp320
a(I2
I846
tp321
a(I2
I847
tp322
a(I2
I846
tp323
a(I2
I846
tp324
a(I2
I846
tp325
a(I3
I846
tp326
a(I2
I846
tp327
a(I2
I846
tp328
a(I2
I846
tp329
a(I1
I846
tp330
a(I2
I846
tp331
a(I2
I846
tp332
a(I2
I846
tp333
a(I2
I846
tp334
a(I2
I846
tp335
a(I2
I846
tp336
a(I2
I846
tp337
a(I2
I847
tp338
a(I2
I847
tp339
a(I2
I846
tp340
a(I2
I845
tp341
a(I2
I846
tp342
a(I2
I846
tp343
a(I2
I846
tp344
a(I2
I846
tp345
a(I2
I846
tp346
a(I2
I846
tp347
a(I2
I846
tp348
a(I2
I846
tp349
a(I2
I847
tp350
a(I2
I845
tp351
a(I2
I846
tp352
a(I2
I846
tp353
a(I2
I846
tp354
a(I2
I846
tp355
a(I2
I846
tp356
a(I2
I846
tp357
a(I2
I846
tp358
a(I2
I846
tp359
a(I2
I847
tp360
a(I2
I846
tp361
a(I2
I846
tp362
a(I2
I846
tp363
a(I2
I847
tp364
a(I2
I847
tp365
a(I2
I846
tp366
a(I2
I846
tp367
a(I2
I845
tp368
a(I2
I846
tp369
a(I2
I846
tp370
a(I2
I846
tp371
a(I2
I845
tp372
a(I2
I846
tp373
a(I2
I846
tp374
a(I2
I846
tp375
a(I2
I846
tp376
a(I2
I846
tp377
a(I2
I846
tp378
a(I2
I846
tp379
a(I2
I846
tp380
a(I2
I846
tp381
a(I2
I846
tp382
a(I2
I846
tp383
a(I2
I846
tp384
a(I2
I847
tp385
a(I2
I846
tp386
a(I2
I846
tp387
a(I2
I846
tp388
a(I2
I846
tp389
a(I2
I846
tp390
a(I2
I846
tp391
a(I2
I845
tp392
a(I2
I846
tp393
a(I2
I846
tp394
a(I2
I846
tp395
a(I2
I846
tp396
a(I2
I846
tp397
a(I2
I846
tp398
a(I2
I847
tp399
a(I2
I847
tp400
a(I2
I846
tp401
a(I2
I846
tp402
a(I2
I846
tp403
a(I2
I846
tp404
a(I2
I846
tp405
a(I2
I846
tp406
a(I2
I846
tp407
a(I2
I846
tp408
a(I2
I846
tp409
a(I2
I846
tp410
a(I2
I847
tp411
a(I2
I846
tp412
a(I2
I846
tp413
a(I2
I846
tp414
a(I2
I846
tp415
a(I2
I846
tp416
a(I2
I846
tp417
a(I2
I846
tp418
a(I2
I846
tp419
a(I2
I846
tp420
a(I2
I846
tp421
a(I2
I846
tp422
a(I2
I847
tp423
a(I2
I846
tp424
a(I2
I846
tp425
a(I2
I846
tp426
a(I2
I846
tp427
a(I2
I847
tp428
a(I2
I847
tp429
a(I2
I846
tp430
a(I2
I846
tp431
a(I2
I846
tp432
a(I2
I846
tp433
a(I2
I846
tp434
a(I2
I846
tp435
a(I1
I846
tp436
a(I2
I846
tp437
a(I2
I846
tp438
a(I2
I846
tp439
a(I2
I846
tp440
a(I2
I846
tp441
a(I2
I846
tp442
a(I2
I735
tp443
a(I2
I846
tp444
a(I2
I846
tp445
a(I2
I847
tp446
a(I2
I846
tp447
a(I2
I846
tp448
a(I2
I846
tp449
a(I2
I846
tp450
a(I2
I847
tp451
a(I2
I846
tp452
a(I2
I846
tp453
a(I2
I846
tp454
a(I2
I845
tp455
a(I2
I846
tp456
a(I2
I846
tp457
a(I2
I846
tp458
a(I2
I846
tp459
a(I2
I846
tp460
a(I2
I846
tp461
a(I2
I846
tp462
a(I2
I846
tp463
a(I2
I846
tp464
a(I2
I847
tp465
a(I2
I846
tp466
a(I2
I846
tp467
a(I2
I846
tp468
a(I2
I846
tp469
a(I2
I846
tp470
a(I2
I846
tp471
a(I2
I846
tp472
a(I2
I846
tp473
a(I2
I846
tp474
a(I2
I847
tp475
a(I2
I846
tp476
a(I3
I845
tp477
a(I2
I846
tp478
a(I2
I846
tp479
a(I2
I847
tp480
a(I2
I846
tp481
a(I2
I846
tp482
a(I2
I846
tp483
a(I3
I846
tp484
a(I2
I846
tp485
a(I1
I846
tp486
a(I2
I846
tp487
a(I2
I846
tp488
a(I2
I846
tp489
a(I2
I846
tp490
a(I2
I846
tp491
a(I2
I846
tp492
a(I2
I846
tp493
a(I2
I846
tp494
a(I2
I846
tp495
a(I2
I846
tp496
a(I2
I846
tp497
a(I2
I846
tp498
a(I2
I846
tp499
a(I2
I846
tp500
a(I2
I846
tp501
a(I2
I846
tp502
a(I2
I847
tp503
a(I2
I846
tp504
a(I2
I846
tp505
a(I2
I846
tp506
a(I2
I846
tp507
a(I2
I846
tp508
a(I2
I847
tp509
a(I2
I847
tp510
a(I2
I846
tp511
a(I2
I846
tp512
a(I2
I846
tp513
a(I2
I846
tp514
a(I2
I846
tp515
a(I2
I846
tp516
a(I2
I846
tp517
a(I2
I846
tp518
a(I2
I846
tp519
a(I2
I846
tp520
a(I2
I846
tp521
a(I2
I846
tp522
a(I2
I846
tp523
a(I2
I845
tp524
a(I2
I846
tp525
a(I2
I846
tp526
a(I2
I846
tp527
a(I2
I846
tp528
a(I2
I846
tp529
a(I2
I846
tp530
a(I2
I846
tp531
a(I2
I846
tp532
a(I2
I846
tp533
a(I2
I846
tp534
a(I2
I846
tp535
a(I2
I846
tp536
a(I2
I846
tp537
a(I2
I847
tp538
a(I2
I846
tp539
a(I169
I1
tp540
a(I170
I1
tp541
a(I0
I846
tp542
a(I144
I1
tp543
a(I0
I349
tp544
a(I0
I248
tp545
a(I148
I924
tp546
a(I0
I845
tp547
a(I221
I2
tp548
a(I146
I1019
tp549
a(I0
I648
tp550
a(I148
I1023
tp551
a(I0
I846
tp552
a(I149
I1
tp553
a(I0
I846
tp554
a(I0
I846
tp555
a(I162
I0
tp556
a(I0
I846
tp557
a(I0
I846
tp558
a(I142
I1
tp559
a(I0
I846
tp560
a(I86
I847
tp561
a(I0
I840
tp562
a(I0
I846
tp563
a(I136
I1
tp564
a(I0
I846
tp565
a(I0
I846
tp566
a(I115
I1
tp567
a(I0
I846
tp568
a(I173
I1
tp569
a(I76
I179
tp570
a(I0
I846
tp571
a(I142
I1
tp572
a(I0
I832
tp573
a(I0
I1
tp574
a(I147
I1
tp575
a(I0
I824
tp576
a(I107
I846
tp577
a(I0
I846
tp578
a(I156
I0
tp579
a(I0
I843
tp580
a(I0
I563
tp581
a(I112
I1
tp582
a(I0
I846
tp583
a(I134
I1
tp584
a(I135
I1
tp585
a(I0
I845
tp586
a(I144
I0
tp587
a(I0
I501
tp588
a(I1
I846
tp589
a(I126
I1
tp590
a(I0
I834
tp591
a(I95
I1
tp592
a(I154
I359
tp593
a(I0
I846
tp594
a(I150
I1
tp595
a(I143
I1
tp596
a(I0
I847
tp597
a(I150
I527
tp598
a(I0
I793
tp599
a(I157
I848
tp600
a(I141
I776
tp601
a(I134
I802
tp602
a(I2
I846
tp603
a(I2
I846
tp604
a(I2
I846
tp605
a(I2
I846
tp606
a(I2
I846
tp607
a(I2
I846
tp608
a(I2
I846
tp609
a(I2
I846
tp610
a(I2
I846
tp611
a(I2
I418
tp612
a(I2
I846
tp613
a(I2
I846
tp614
a(I2
I845
tp615
a(I2
I846
tp616
a(I2
I846
tp617
a(I2
I846
tp618
a(I2
I846
tp619
a(I2
I846
tp620
a(I2
I846
tp621
a(I2
I846
tp622
a(I2
I847
tp623
a(I2
I846
tp624
a(I2
I846
tp625
a(I2
I846
tp626
a(I2
I846
tp627
a(I2
I846
tp628
a(I2
I846
tp629
a(I2
I846
tp630
a(I2
I846
tp631
a(I2
I846
tp632
a(I2
I846
tp633
a(I2
I847
tp634
a(I2
I846
tp635
a(I2
I846
tp636
a(I2
I847
tp637
a(I2
I846
tp638
a(I2
I846
tp639
a(I2
I846
tp640
a(I2
I846
tp641
a(I2
I846
tp642
a(I2
I846
tp643
a(I2
I846
tp644
a(I2
I846
tp645
a(I2
I846
tp646
a(I2
I846
tp647
a(I2
I847
tp648
a(I2
I846
tp649
a(I2
I846
tp650
a(I2
I846
tp651
a(I2
I846
tp652
a(I2
I846
tp653
a(I2
I846
tp654
a(I2
I846
tp655
a(I2
I846
tp656
a(I2
I846
tp657
a(I2
I846
tp658
a(I2
I847
tp659
a(I2
I846
tp660
a(I2
I847
tp661
a(I2
I846
tp662
a(I2
I846
tp663
a(I2
I846
tp664
a(I2
I847
tp665
a(I2
I847
tp666
a(I2
I846
tp667
a(I2
I846
tp668
a(I2
I846
tp669
a(I2
I846
tp670
a(I2
I846
tp671
a(I2
I846
tp672
a(I2
I846
tp673
a(I2
I846
tp674
a(I2
I846
tp675
a(I2
I846
tp676
a(I2
I846
tp677
a(I2
I847
tp678
a(I2
I846
tp679
a(I2
I846
tp680
a(I2
I846
tp681
a(I2
I846
tp682
a(I2
I846
tp683
a(I3
I846
tp684
a(I2
I846
tp685
a(I2
I847
tp686
a(I2
I846
tp687
a(I2
I846
tp688
a(I2
I846
tp689
a(I2
I846
tp690
a(I2
I846
tp691
a(I2
I846
tp692
a(I2
I846
tp693
a(I2
I846
tp694
a(I2
I846
tp695
a(I2
I846
tp696
a(I2
I846
tp697
a(I2
I846
tp698
a(I1
I846
tp699
a(I2
I846
tp700
a(I2
I846
tp701
a(I2
I846
tp702
a(I2
I846
tp703
a(I2
I846
tp704
a(I2
I846
tp705
a(I2
I846
tp706
a(I2
I845
tp707
a(I2
I846
tp708
a(I2
I846
tp709
a(I2
I846
tp710
a(I2
I846
tp711
a(I2
I846
tp712
a(I2
I846
tp713
a(I2
I846
tp714
a(I2
I846
tp715
a(I2
I846
tp716
a(I2
I846
tp717
a(I2
I846
tp718
a(I2
I846
tp719
a(I2
I846
tp720
a(I2
I846
tp721
a(I2
I846
tp722
a(I2
I846
tp723
a(I2
I846
tp724
a(I2
I846
tp725
a(I2
I846
tp726
a(I2
I847
tp727
a(I2
I846
tp728
a(I2
I846
tp729
a(I2
I846
tp730
a(I2
I847
tp731
a(I2
I846
tp732
a(I2
I846
tp733
a(I2
I846
tp734
a(I2
I846
tp735
a(I2
I846
tp736
a(I2
I846
tp737
a(I2
I847
tp738
a(I2
I846
tp739
a(I2
I846
tp740
a(I2
I847
tp741
a(I2
I846
tp742
a(I2
I846
tp743
a(I2
I846
tp744
a(I2
I846
tp745
a(I2
I846
tp746
a(I2
I846
tp747
a(I2
I847
tp748
a(I2
I846
tp749
a(I2
I846
tp750
a(I2
I846
tp751
a(I2
I846
tp752
a(I2
I846
tp753
a(I2
I846
tp754
a(I2
I846
tp755
a(I2
I846
tp756
a(I2
I846
tp757
a(I2
I846
tp758
a(I2
I847
tp759
a(I2
I846
tp760
a(I2
I846
tp761
a(I2
I847
tp762
a(I2
I846
tp763
a(I2
I846
tp764
a(I2
I846
tp765
a(I2
I846
tp766
a(I2
I846
tp767
a(I2
I846
tp768
a(I2
I846
tp769
a(I2
I846
tp770
a(I2
I846
tp771
a(I2
I845
tp772
a(I2
I846
tp773
a(I2
I846
tp774
a(I2
I846
tp775
a(I2
I847
tp776
a(I2
I846
tp777
a(I2
I846
tp778
a(I3
I846
tp779
a(I2
I846
tp780
a(I2
I846
tp781
a(I2
I846
tp782
a(I2
I846
tp783
a(I2
I847
tp784
a(I2
I831
tp785
a(I2
I846
tp786
a(I2
I846
tp787
a(I2
I846
tp788
a(I2
I846
tp789
a(I2
I846
tp790
a(I2
I846
tp791
a(I2
I846
tp792
a(I2
I846
tp793
a(I2
I846
tp794
a(I2
I847
tp795
a(I2
I846
tp796
a(I2
I823
tp797
a(I2
I846
tp798
a(I2
I846
tp799
a(I2
I804
tp800
a(I2
I846
tp801
a(I2
I846
tp802
a(I2
I846
tp803
a(I2
I846
tp804
a(I2
I845
tp805
a(I2
I846
tp806
a(I2
I846
tp807
a(I2
I846
tp808
a(I3
I846
tp809
a(I2
I846
tp810
a(I2
I846
tp811
a(I2
I846
tp812
a(I2
I846
tp813
a(I2
I846
tp814
a(I2
I846
tp815
a(I2
I846
tp816
a(I2
I846
tp817
a(I2
I846
tp818
a(I2
I846
tp819
a(I2
I847
tp820
a(I2
I846
tp821
a(I2
I846
tp822
a(I2
I846
tp823
a(I2
I846
tp824
a(I2
I846
tp825
a(I2
I846
tp826
a(I2
I846
tp827
a(I2
I846
tp828
a(I2
I846
tp829
a(I2
I846
tp830
a(I2
I846
tp831
a(I2
I846
tp832
a(I2
I846
tp833
a(I2
I846
tp834
a(I2
I846
tp835
a(I2
I846
tp836
a(I2
I846
tp837
a(I1
I846
tp838
a(I2
I846
tp839
a(I2
I846
tp840
a(I2
I846
tp841
a(I2
I847
tp842
a(I2
I845
tp843
a(I2
I846
tp844
a(I2
I846
tp845
a(I2
I846
tp846
a(I2
I846
tp847
a(I2
I846
tp848
a(I2
I847
tp849
a(I2
I846
tp850
a(I2
I846
tp851
a(I2
I846
tp852
a(I2
I846
tp853
a(I2
I846
tp854
a(I2
I846
tp855
a(I2
I846
tp856
a(I2
I846
tp857
a(I2
I846
tp858
a(I2
I846
tp859
a(I2
I846
tp860
a(I2
I847
tp861
a(I2
I846
tp862
a(I2
I846
tp863
a(I2
I846
tp864
a(I2
I846
tp865
a(I2
I846
tp866
a(I2
I846
tp867
a(I2
I846
tp868
a(I2
I845
tp869
a(I2
I846
tp870
a(I2
I846
tp871
a(I2
I846
tp872
a(I2
I846
tp873
a(I2
I846
tp874
a(I2
I846
tp875
a(I2
I846
tp876
a(I2
I848
tp877
a(I2
I846
tp878
a(I2
I846
tp879
a(I2
I846
tp880
a(I2
I846
tp881
a(I2
I846
tp882
a(I2
I846
tp883
a(I2
I846
tp884
a(I2
I846
tp885
a(I2
I846
tp886
a(I2
I846
tp887
a(I2
I846
tp888
a(I2
I846
tp889
a(I2
I846
tp890
a(I2
I846
tp891
a(I2
I846
tp892
a(I2
I846
tp893
a(I2
I846
tp894
a(I2
I846
tp895
a(I2
I846
tp896
a(I2
I846
tp897
a(I2
I846
tp898
a(I2
I846
tp899
a(I3
I846
tp900
a(I2
I846
tp901
a(I2
I846
tp902
a(I2
I846
tp903
a(I2
I846
tp904
a(I2
I846
tp905
a(I2
I846
tp906
a(I2
I846
tp907
a(I2
I846
tp908
a(I2
I846
tp909
a(I2
I846
tp910
a(I2
I846
tp911
a(I2
I846
tp912
a(I2
I846
tp913
a(I2
I845
tp914
a(I2
I846
tp915
a(I2
I846
tp916
a(I2
I846
tp917
a(I2
I846
tp918
a(I2
I846
tp919
a(I2
I846
tp920
a(I2
I846
tp921
a(I2
I846
tp922
a(I2
I846
tp923
a(I2
I846
tp924
a(I2
I846
tp925
a(I2
I846
tp926
a(I2
I846
tp927
a(I2
I846
tp928
a(I2
I846
tp929
a(I2
I846
tp930
a(I2
I846
tp931
a(I2
I846
tp932
a(I2
I846
tp933
a(I2
I847
tp934
a(I2
I846
tp935
a(I2
I846
tp936
a(I2
I846
tp937
a(I2
I846
tp938
a(I2
I846
tp939
a(I2
I846
tp940
a(I2
I846
tp941
a(I2
I846
tp942
a(I2
I846
tp943
a(I2
I846
tp944
a(I2
I847
tp945
a(I2
I846
tp946
a(I2
I846
tp947
a(I2
I847
tp948
a(I2
I846
tp949
a(I2
I846
tp950
a(I2
I846
tp951
a(I2
I846
tp952
a(I2
I846
tp953
a(I2
I846
tp954
a(I2
I846
tp955
a(I2
I847
tp956
a(I2
I846
tp957
a(I2
I846
tp958
a(I2
I846
tp959
a(I2
I846
tp960
a(I2
I846
tp961
a(I2
I847
tp962
a(I2
I846
tp963
a(I2
I846
tp964
a(I2
I846
tp965
a(I2
I846
tp966
a(I2
I845
tp967
a(I2
I846
tp968
a(I2
I846
tp969
a(I2
I846
tp970
a(I2
I846
tp971
a(I2
I846
tp972
a(I2
I846
tp973
a(I2
I847
tp974
a(I2
I845
tp975
a(I2
I846
tp976
a(I2
I846
tp977
a(I2
I846
tp978
a(I2
I846
tp979
a(I2
I846
tp980
a(I2
I846
tp981
a(I2
I846
tp982
a(I2
I845
tp983
a(I2
I846
tp984
a(I2
I846
tp985
a(I2
I847
tp986
a(I2
I846
tp987
a(I2
I846
tp988
a(I2
I846
tp989
a(I2
I846
tp990
a(I2
I846
tp991
a(I2
I846
tp992
a(I2
I846
tp993
a(I2
I846
tp994
a(I2
I846
tp995
a(I2
I846
tp996
a(I2
I846
tp997
a(I2
I846
tp998
a(I2
I846
tp999
a(I2
I847
tp1000
a(I2
I846
tp1001
a(I2
I846
tp1002
a(I2
I846
tp1003
asS'LEFT'
p1004
(lp1005
(I2
I846
tp1006
a(I2
I846
tp1007
a(I2
I846
tp1008
a(I2
I846
tp1009
a(I2
I846
tp1010
a(I2
I846
tp1011
a(I2
I846
tp1012
a(I2
I846
tp1013
a(I2
I846
tp1014
a(I2
I846
tp1015
a(I2
I846
tp1016
a(I2
I846
tp1017
a(I2
I770
tp1018
a(I2
I846
tp1019
a(I2
I846
tp1020
a(I2
I846
tp1021
a(I2
I846
tp1022
a(I2
I846
tp1023
a(I2
I846
tp1024
a(I1
I846
tp1025
a(I2
I846
tp1026
a(I2
I846
tp1027
a(I2
I846
tp1028
a(I2
I847
tp1029
a(I2
I846
tp1030
a(I2
I846
tp1031
a(I2
I846
tp1032
a(I2
I846
tp1033
a(I2
I846
tp1034
a(I2
I846
tp1035
a(I2
I846
tp1036
a(I2
I846
tp1037
a(I2
I846
tp1038
a(I2
I846
tp1039
a(I2
I846
tp1040
a(I2
I846
tp1041
a(I2
I846
tp1042
a(I2
I846
tp1043
a(I2
I840
tp1044
a(I2
I846
tp1045
a(I2
I846
tp1046
a(I2
I845
tp1047
a(I2
I846
tp1048
a(I2
I846
tp1049
a(I2
I846
tp1050
a(I2
I846
tp1051
a(I2
I846
tp1052
a(I2
I846
tp1053
a(I2
I847
tp1054
a(I2
I846
tp1055
a(I2
I846
tp1056
a(I2
I846
tp1057
a(I2
I846
tp1058
a(I2
I846
tp1059
a(I2
I846
tp1060
a(I2
I846
tp1061
a(I2
I846
tp1062
a(I2
I846
tp1063
a(I2
I846
tp1064
a(I2
I846
tp1065
a(I2
I846
tp1066
a(I2
I846
tp1067
a(I2
I846
tp1068
a(I2
I846
tp1069
a(I3
I846
tp1070
a(I2
I846
tp1071
a(I2
I846
tp1072
a(I2
I846
tp1073
a(I2
I845
tp1074
a(I2
I846
tp1075
a(I2
I846
tp1076
a(I2
I846
tp1077
a(I2
I846
tp1078
a(I2
I846
tp1079
a(I2
I846
tp1080
a(I2
I846
tp1081
a(I2
I846
tp1082
a(I2
I846
tp1083
a(I2
I840
tp1084
a(I2
I846
tp1085
a(I2
I846
tp1086
a(I2
I846
tp1087
a(I2
I846
tp1088
a(I2
I846
tp1089
a(I2
I846
tp1090
a(I2
I846
tp1091
a(I2
I846
tp1092
a(I2
I846
tp1093
a(I2
I846
tp1094
a(I2
I846
tp1095
a(I2
I846
tp1096
a(I2
I846
tp1097
a(I2
I846
tp1098
a(I2
I846
tp1099
a(I2
I812
tp1100
a(I2
I846
tp1101
a(I2
I846
tp1102
a(I2
I846
tp1103
a(I2
I846
tp1104
a(I2
I847
tp1105
a(I2
I847
tp1106
a(I2
I846
tp1107
a(I2
I846
tp1108
a(I2
I846
tp1109
a(I2
I846
tp1110
a(I2
I847
tp1111
a(I2
I846
tp1112
a(I2
I846
tp1113
a(I2
I846
tp1114
a(I2
I846
tp1115
a(I2
I847
tp1116
a(I2
I846
tp1117
a(I2
I846
tp1118
a(I2
I846
tp1119
a(I2
I846
tp1120
a(I2
I846
tp1121
a(I2
I846
tp1122
a(I2
I846
tp1123
a(I2
I846
tp1124
a(I2
I846
tp1125
a(I2
I846
tp1126
a(I2
I846
tp1127
a(I2
I844
tp1128
a(I2
I846
tp1129
a(I2
I846
tp1130
a(I2
I846
tp1131
a(I2
I846
tp1132
a(I2
I846
tp1133
a(I2
I846
tp1134
a(I2
I846
tp1135
a(I2
I846
tp1136
a(I2
I846
tp1137
a(I2
I846
tp1138
a(I2
I846
tp1139
a(I2
I487
tp1140
a(I2
I846
tp1141
a(I2
I846
tp1142
a(I1
I846
tp1143
a(I2
I846
tp1144
a(I2
I846
tp1145
a(I2
I846
tp1146
a(I2
I846
tp1147
a(I2
I846
tp1148
a(I2
I846
tp1149
a(I2
I846
tp1150
a(I2
I846
tp1151
a(I2
I846
tp1152
a(I2
I846
tp1153
a(I2
I846
tp1154
a(I2
I846
tp1155
a(I2
I846
tp1156
a(I2
I846
tp1157
a(I2
I846
tp1158
a(I2
I846
tp1159
a(I2
I846
tp1160
a(I2
I846
tp1161
a(I1
I846
tp1162
a(I2
I846
tp1163
a(I2
I846
tp1164
a(I2
I846
tp1165
a(I2
I846
tp1166
a(I2
I846
tp1167
a(I2
I846
tp1168
a(I2
I846
tp1169
a(I2
I846
tp1170
a(I2
I846
tp1171
a(I2
I846
tp1172
a(I2
I846
tp1173
a(I2
I846
tp1174
a(I2
I846
tp1175
a(I2
I846
tp1176
a(I2
I846
tp1177
a(I2
I846
tp1178
a(I2
I846
tp1179
a(I2
I846
tp1180
a(I2
I846
tp1181
a(I2
I846
tp1182
a(I2
I846
tp1183
a(I2
I846
tp1184
a(I2
I846
tp1185
a(I2
I846
tp1186
a(I2
I846
tp1187
a(I2
I847
tp1188
a(I2
I846
tp1189
a(I2
I846
tp1190
a(I2
I846
tp1191
a(I2
I846
tp1192
a(I2
I846
tp1193
a(I2
I846
tp1194
a(I2
I846
tp1195
a(I2
I846
tp1196
a(I2
I846
tp1197
a(I2
I846
tp1198
a(I2
I847
tp1199
a(I2
I846
tp1200
a(I2
I846
tp1201
a(I2
I846
tp1202
a(I2
I846
tp1203
a(I2
I846
tp1204
a(I2
I846
tp1205
a(I2
I846
tp1206
a(I2
I846
tp1207
a(I2
I846
tp1208
a(I2
I846
tp1209
a(I2
I846
tp1210
a(I2
I846
tp1211
a(I2
I846
tp1212
a(I2
I846
tp1213
a(I2
I846
tp1214
a(I2
I846
tp1215
a(I2
I846
tp1216
a(I2
I846
tp1217
a(I2
I846
tp1218
a(I2
I846
tp1219
a(I2
I846
tp1220
a(I2
I846
tp1221
a(I2
I846
tp1222
a(I2
I846
tp1223
a(I2
I846
tp1224
a(I2
I846
tp1225
a(I2
I846
tp1226
a(I2
I846
tp1227
a(I2
I847
tp1228
a(I2
I846
tp1229
a(I2
I846
tp1230
a(I2
I846
tp1231
a(I3
I846
tp1232
a(I2
I846
tp1233
a(I2
I846
tp1234
a(I2
I846
tp1235
a(I2
I846
tp1236
a(I2
I846
tp1237
a(I2
I846
tp1238
a(I2
I846
tp1239
a(I2
I846
tp1240
a(I2
I846
tp1241
a(I2
I846
tp1242
a(I2
I846
tp1243
a(I2
I846
tp1244
a(I2
I846
tp1245
a(I2
I846
tp1246
a(I2
I846
tp1247
a(I2
I846
tp1248
a(I2
I846
tp1249
a(I2
I847
tp1250
a(I2
I846
tp1251
a(I2
I846
tp1252
a(I2
I846
tp1253
a(I2
I846
tp1254
a(I2
I846
tp1255
a(I2
I846
tp1256
a(I2
I846
tp1257
a(I2
I846
tp1258
a(I2
I846
tp1259
a(I2
I846
tp1260
a(I3
I846
tp1261
a(I2
I846
tp1262
a(I2
I846
tp1263
a(I2
I846
tp1264
a(I2
I846
tp1265
a(I2
I846
tp1266
a(I2
I846
tp1267
a(I2
I846
tp1268
a(I2
I846
tp1269
a(I2
I846
tp1270
a(I2
I846
tp1271
a(I2
I845
tp1272
a(I2
I847
tp1273
a(I2
I846
tp1274
a(I2
I846
tp1275
a(I2
I846
tp1276
a(I2
I846
tp1277
a(I2
I846
tp1278
a(I2
I846
tp1279
a(I2
I753
tp1280
a(I2
I846
tp1281
a(I2
I846
tp1282
a(I2
I846
tp1283
a(I2
I847
tp1284
a(I2
I846
tp1285
a(I2
I846
tp1286
a(I2
I846
tp1287
a(I2
I846
tp1288
a(I2
I847
tp1289
a(I2
I846
tp1290
a(I2
I846
tp1291
a(I2
I846
tp1292
a(I2
I846
tp1293
a(I2
I846
tp1294
a(I2
I846
tp1295
a(I2
I846
tp1296
a(I2
I843
tp1297
a(I2
I846
tp1298
a(I2
I846
tp1299
a(I2
I846
tp1300
a(I2
I846
tp1301
a(I2
I846
tp1302
a(I2
I846
tp1303
a(I2
I846
tp1304
a(I2
I846
tp1305
a(I2
I846
tp1306
a(I2
I846
tp1307
a(I2
I846
tp1308
a(I2
I846
tp1309
a(I2
I847
tp1310
a(I2
I846
tp1311
a(I2
I846
tp1312
a(I2
I846
tp1313
a(I2
I846
tp1314
a(I1
I846
tp1315
a(I2
I846
tp1316
a(I2
I846
tp1317
a(I2
I846
tp1318
a(I2
I846
tp1319
a(I2
I846
tp1320
a(I2
I846
tp1321
a(I2
I846
tp1322
a(I2
I846
tp1323
a(I2
I846
tp1324
a(I2
I846
tp1325
a(I2
I846
tp1326
a(I2
I846
tp1327
a(I2
I846
tp1328
a(I2
I846
tp1329
a(I2
I846
tp1330
a(I2
I846
tp1331
a(I2
I846
tp1332
a(I3
I846
tp1333
a(I2
I846
tp1334
a(I2
I847
tp1335
a(I2
I846
tp1336
a(I2
I846
tp1337
a(I3
I846
tp1338
a(I2
I846
tp1339
a(I2
I846
tp1340
a(I2
I845
tp1341
a(I2
I846
tp1342
a(I2
I846
tp1343
a(I2
I846
tp1344
a(I2
I846
tp1345
a(I2
I846
tp1346
a(I2
I846
tp1347
a(I2
I846
tp1348
a(I2
I846
tp1349
a(I2
I846
tp1350
a(I2
I846
tp1351
a(I2
I846
tp1352
a(I2
I846
tp1353
a(I2
I846
tp1354
a(I2
I846
tp1355
a(I2
I846
tp1356
a(I2
I846
tp1357
a(I2
I846
tp1358
a(I2
I846
tp1359
a(I2
I846
tp1360
a(I2
I846
tp1361
a(I2
I846
tp1362
a(I2
I846
tp1363
a(I2
I846
tp1364
a(I2
I846
tp1365
a(I2
I845
tp1366
a(I2
I846
tp1367
a(I2
I846
tp1368
a(I2
I846
tp1369
a(I2
I846
tp1370
a(I2
I846
tp1371
a(I2
I846
tp1372
a(I2
I847
tp1373
a(I2
I846
tp1374
a(I2
I846
tp1375
a(I2
I846
tp1376
a(I2
I846
tp1377
a(I2
I847
tp1378
a(I2
I846
tp1379
a(I2
I846
tp1380
a(I2
I846
tp1381
a(I2
I846
tp1382
a(I2
I847
tp1383
a(I2
I846
tp1384
a(I2
I846
tp1385
a(I2
I846
tp1386
a(I2
I846
tp1387
a(I2
I846
tp1388
a(I2
I846
tp1389
a(I2
I847
tp1390
a(I2
I846
tp1391
a(I2
I846
tp1392
a(I2
I846
tp1393
a(I2
I844
tp1394
a(I2
I846
tp1395
a(I2
I846
tp1396
a(I2
I846
tp1397
a(I2
I846
tp1398
a(I2
I846
tp1399
a(I2
I847
tp1400
a(I2
I846
tp1401
a(I2
I846
tp1402
a(I2
I846
tp1403
a(I2
I846
tp1404
a(I2
I847
tp1405
a(I2
I846
tp1406
a(I2
I846
tp1407
a(I2
I846
tp1408
a(I2
I846
tp1409
a(I1
I846
tp1410
a(I2
I846
tp1411
a(I2
I846
tp1412
a(I2
I846
tp1413
a(I2
I846
tp1414
a(I2
I846
tp1415
a(I2
I846
tp1416
a(I2
I846
tp1417
a(I2
I846
tp1418
a(I2
I846
tp1419
a(I2
I846
tp1420
a(I2
I846
tp1421
a(I2
I846
tp1422
a(I2
I846
tp1423
a(I2
I846
tp1424
a(I2
I846
tp1425
a(I2
I846
tp1426
a(I2
I846
tp1427
a(I2
I846
tp1428
a(I2
I846
tp1429
a(I2
I847
tp1430
a(I2
I846
tp1431
a(I2
I846
tp1432
a(I2
I846
tp1433
a(I2
I846
tp1434
a(I2
I846
tp1435
a(I2
I847
tp1436
a(I2
I846
tp1437
a(I2
I846
tp1438
a(I2
I846
tp1439
a(I2
I846
tp1440
a(I2
I846
tp1441
a(I2
I846
tp1442
a(I2
I846
tp1443
a(I2
I846
tp1444
a(I2
I846
tp1445
a(I2
I846
tp1446
a(I2
I846
tp1447
a(I2
I846
tp1448
a(I2
I846
tp1449
a(I2
I846
tp1450
a(I2
I846
tp1451
a(I2
I846
tp1452
a(I2
I846
tp1453
a(I2
I846
tp1454
a(I2
I846
tp1455
a(I2
I846
tp1456
a(I2
I846
tp1457
a(I2
I846
tp1458
a(I2
I846
tp1459
a(I2
I846
tp1460
a(I2
I846
tp1461
a(I2
I846
tp1462
a(I2
I846
tp1463
a(I2
I846
tp1464
a(I2
I846
tp1465
a(I2
I847
tp1466
a(I2
I846
tp1467
a(I2
I846
tp1468
a(I2
I846
tp1469
a(I2
I846
tp1470
a(I2
I846
tp1471
a(I2
I846
tp1472
a(I2
I846
tp1473
a(I2
I846
tp1474
a(I2
I846
tp1475
a(I2
I846
tp1476
a(I2
I846
tp1477
a(I2
I846
tp1478
a(I2
I846
tp1479
a(I2
I846
tp1480
a(I2
I846
tp1481
a(I2
I846
tp1482
a(I2
I846
tp1483
a(I2
I846
tp1484
a(I2
I846
tp1485
a(I2
I846
tp1486
a(I2
I846
tp1487
a(I2
I846
tp1488
a(I2
I847
tp1489
a(I2
I847
tp1490
a(I2
I847
tp1491
a(I2
I846
tp1492
a(I2
I846
tp1493
a(I2
I846
tp1494
a(I2
I846
tp1495
a(I2
I846
tp1496
a(I2
I846
tp1497
a(I2
I846
tp1498
a(I2
I846
tp1499
a(I2
I846
tp1500
a(I2
I846
tp1501
a(I2
I846
tp1502
a(I2
I846
tp1503
a(I2
I846
tp1504
a(I2
I846
tp1505
a(I2
I847
tp1506
a(I2
I846
tp1507
a(I2
I846
tp1508
a(I2
I846
tp1509
a(I2
I846
tp1510
a(I2
I846
tp1511
a(I2
I846
tp1512
a(I2
I846
tp1513
a(I2
I846
tp1514
a(I2
I846
tp1515
a(I2
I846
tp1516
a(I2
I846
tp1517
a(I2
I846
tp1518
a(I2
I846
tp1519
a(I2
I845
tp1520
a(I2
I846
tp1521
a(I2
I846
tp1522
a(I2
I847
tp1523
a(I2
I846
tp1524
a(I2
I846
tp1525
a(I2
I846
tp1526
a(I2
I846
tp1527
a(I2
I846
tp1528
a(I2
I846
tp1529
a(I2
I846
tp1530
a(I2
I846
tp1531
a(I2
I846
tp1532
a(I2
I846
tp1533
a(I2
I846
tp1534
a(I2
I846
tp1535
a(I2
I847
tp1536
a(I2
I846
tp1537
a(I2
I846
tp1538
a(I2
I846
tp1539
a(I2
I846
tp1540
a(I2
I846
tp1541
a(I2
I846
tp1542
a(I2
I846
tp1543
a(I2
I846
tp1544
a(I2
I846
tp1545
a(I2
I846
tp1546
a(I2
I846
tp1547
a(I2
I846
tp1548
a(I2
I846
tp1549
a(I2
I846
tp1550
a(I2
I846
tp1551
a(I2
I846
tp1552
a(I2
I846
tp1553
a(I2
I846
tp1554
a(I2
I846
tp1555
a(I2
I846
tp1556
a(I3
I846
tp1557
a(I2
I846
tp1558
a(I2
I846
tp1559
a(I2
I846
tp1560
a(I2
I846
tp1561
a(I2
I846
tp1562
a(I2
I846
tp1563
a(I2
I846
tp1564
a(I3
I846
tp1565
a(I1
I846
tp1566
a(I2
I846
tp1567
a(I2
I846
tp1568
a(I2
I846
tp1569
a(I2
I846
tp1570
a(I2
I846
tp1571
a(I2
I846
tp1572
a(I2
I846
tp1573
a(I2
I846
tp1574
a(I2
I846
tp1575
a(I2
I846
tp1576
a(I2
I846
tp1577
a(I2
I846
tp1578
a(I2
I846
tp1579
a(I2
I846
tp1580
a(I2
I846
tp1581
a(I2
I846
tp1582
a(I2
I847
tp1583
a(I2
I846
tp1584
a(I2
I846
tp1585
a(I2
I846
tp1586
a(I2
I846
tp1587
a(I2
I846
tp1588
a(I2
I846
tp1589
a(I2
I846
tp1590
a(I2
I846
tp1591
a(I2
I846
tp1592
a(I1
I846
tp1593
a(I2
I846
tp1594
a(I2
I845
tp1595
a(I2
I846
tp1596
a(I2
I846
tp1597
a(I2
I846
tp1598
a(I2
I846
tp1599
a(I2
I846
tp1600
a(I2
I846
tp1601
a(I2
I847
tp1602
a(I2
I846
tp1603
a(I2
I846
tp1604
a(I2
I846
tp1605
a(I2
I846
tp1606
a(I2
I846
tp1607
a(I2
I846
tp1608
a(I2
I847
tp1609
a(I2
I847
tp1610
a(I2
I841
tp1611
a(I2
I846
tp1612
a(I2
I846
tp1613
a(I2
I846
tp1614
a(I2
I846
tp1615
a(I2
I846
tp1616
a(I2
I846
tp1617
a(I2
I846
tp1618
a(I2
I846
tp1619
a(I2
I846
tp1620
a(I2
I846
tp1621
a(I2
I846
tp1622
a(I2
I846
tp1623
a(I2
I846
tp1624
a(I2
I846
tp1625
a(I2
I846
tp1626
a(I2
I846
tp1627
a(I2
I846
tp1628
a(I2
I847
tp1629
a(I2
I846
tp1630
a(I2
I846
tp1631
a(I2
I846
tp1632
a(I2
I846
tp1633
a(I2
I846
tp1634
a(I2
I846
tp1635
a(I2
I846
tp1636
a(I2
I846
tp1637
a(I2
I846
tp1638
a(I2
I846
tp1639
a(I2
I846
tp1640
a(I3
I846
tp1641
a(I2
I846
tp1642
a(I2
I847
tp1643
a(I2
I846
tp1644
a(I1
I846
tp1645
a(I3
I846
tp1646
a(I2
I846
tp1647
a(I2
I846
tp1648
a(I2
I846
tp1649
a(I2
I846
tp1650
a(I2
I846
tp1651
a(I2
I846
tp1652
a(I2
I846
tp1653
a(I2
I846
tp1654
a(I2
I846
tp1655
a(I2
I846
tp1656
a(I2
I846
tp1657
a(I1
I846
tp1658
a(I2
I846
tp1659
a(I2
I846
tp1660
a(I2
I845
tp1661
a(I2
I846
tp1662
a(I2
I846
tp1663
a(I2
I846
tp1664
a(I2
I846
tp1665
a(I2
I846
tp1666
a(I2
I846
tp1667
a(I2
I846
tp1668
a(I2
I846
tp1669
a(I2
I846
tp1670
a(I2
I846
tp1671
a(I2
I846
tp1672
a(I2
I846
tp1673
a(I2
I845
tp1674
a(I2
I846
tp1675
a(I2
I846
tp1676
a(I2
I846
tp1677
a(I2
I846
tp1678
a(I2
I846
tp1679
a(I2
I846
tp1680
a(I2
I846
tp1681
a(I2
I846
tp1682
a(I2
I846
tp1683
a(I2
I846
tp1684
a(I2
I846
tp1685
a(I2
I846
tp1686
a(I2
I846
tp1687
a(I2
I846
tp1688
a(I2
I847
tp1689
a(I2
I846
tp1690
a(I2
I846
tp1691
a(I2
I846
tp1692
a(I2
I846
tp1693
a(I2
I846
tp1694
a(I2
I847
tp1695
a(I2
I846
tp1696
a(I2
I846
tp1697
a(I2
I847
tp1698
a(I2
I846
tp1699
a(I2
I847
tp1700
a(I2
I846
tp1701
a(I2
I846
tp1702
a(I2
I846
tp1703
a(I2
I846
tp1704
a(I2
I846
tp1705
a(I2
I846
tp1706
a(I2
I846
tp1707
a(I2
I846
tp1708
a(I2
I846
tp1709
a(I2
I847
tp1710
a(I2
I846
tp1711
a(I2
I846
tp1712
a(I2
I846
tp1713
a(I2
I846
tp1714
a(I2
I846
tp1715
a(I2
I847
tp1716
a(I2
I846
tp1717
a(I2
I846
tp1718
a(I2
I846
tp1719
a(I2
I846
tp1720
a(I2
I846
tp1721
a(I2
I847
tp1722
a(I2
I846
tp1723
a(I2
I846
tp1724
a(I2
I846
tp1725
a(I2
I846
tp1726
a(I2
I847
tp1727
a(I2
I846
tp1728
a(I2
I846
tp1729
a(I2
I846
tp1730
a(I2
I846
tp1731
a(I2
I846
tp1732
a(I2
I846
tp1733
a(I2
I846
tp1734
a(I2
I846
tp1735
a(I2
I846
tp1736
a(I2
I846
tp1737
a(I2
I846
tp1738
a(I2
I846
tp1739
a(I2
I846
tp1740
a(I2
I846
tp1741
a(I2
I846
tp1742
a(I2
I846
tp1743
a(I2
I846
tp1744
a(I2
I846
tp1745
a(I2
I846
tp1746
a(I2
I847
tp1747
a(I2
I846
tp1748
a(I2
I846
tp1749
a(I2
I846
tp1750
a(I2
I846
tp1751
a(I2
I846
tp1752
a(I2
I845
tp1753
a(I2
I846
tp1754
a(I2
I846
tp1755
a(I2
I846
tp1756
a(I2
I846
tp1757
a(I2
I792
tp1758
a(I2
I846
tp1759
a(I2
I846
tp1760
a(I2
I846
tp1761
a(I2
I846
tp1762
a(I2
I846
tp1763
a(I2
I846
tp1764
a(I2
I846
tp1765
a(I2
I846
tp1766
a(I2
I846
tp1767
a(I2
I847
tp1768
a(I2
I846
tp1769
a(I2
I845
tp1770
a(I2
I846
tp1771
a(I2
I846
tp1772
a(I2
I846
tp1773
a(I2
I846
tp1774
a(I2
I846
tp1775
a(I2
I846
tp1776
a(I2
I846
tp1777
a(I2
I846
tp1778
a(I2
I846
tp1779
a(I2
I847
tp1780
a(I2
I846
tp1781
a(I2
I847
tp1782
a(I2
I846
tp1783
a(I2
I846
tp1784
a(I2
I846
tp1785
a(I2
I847
tp1786
a(I2
I846
tp1787
a(I2
I846
tp1788
a(I2
I846
tp1789
a(I2
I846
tp1790
a(I2
I846
tp1791
a(I2
I846
tp1792
a(I2
I846
tp1793
a(I2
I846
tp1794
a(I2
I846
tp1795
a(I2
I847
tp1796
a(I2
I846
tp1797
a(I2
I846
tp1798
a(I2
I846
tp1799
a(I2
I846
tp1800
a(I2
I846
tp1801
a(I2
I846
tp1802
a(I2
I846
tp1803
a(I2
I846
tp1804
a(I2
I846
tp1805
a(I2
I846
tp1806
a(I2
I846
tp1807
a(I2
I846
tp1808
a(I2
I846
tp1809
a(I2
I846
tp1810
a(I2
I846
tp1811
a(I2
I846
tp1812
a(I2
I846
tp1813
a(I2
I846
tp1814
a(I2
I846
tp1815
a(I2
I845
tp1816
a(I2
I846
tp1817
a(I2
I846
tp1818
a(I2
I846
tp1819
a(I2
I846
tp1820
a(I2
I846
tp1821
a(I2
I846
tp1822
a(I2
I846
tp1823
a(I2
I846
tp1824
a(I2
I846
tp1825
a(I2
I846
tp1826
a(I2
I846
tp1827
a(I2
I846
tp1828
a(I2
I846
tp1829
a(I2
I846
tp1830
a(I2
I846
tp1831
a(I2
I846
tp1832
a(I2
I846
tp1833
a(I2
I846
tp1834
a(I2
I846
tp1835
a(I2
I846
tp1836
a(I2
I846
tp1837
a(I2
I846
tp1838
a(I2
I846
tp1839
a(I2
I846
tp1840
a(I2
I846
tp1841
a(I2
I846
tp1842
a(I2
I847
tp1843
a(I2
I846
tp1844
a(I2
I846
tp1845
a(I2
I846
tp1846
a(I2
I846
tp1847
a(I2
I846
tp1848
a(I2
I846
tp1849
a(I2
I846
tp1850
a(I2
I846
tp1851
a(I2
I846
tp1852
a(I2
I846
tp1853
a(I2
I846
tp1854
a(I2
I846
tp1855
a(I2
I846
tp1856
a(I2
I846
tp1857
a(I2
I846
tp1858
a(I2
I846
tp1859
a(I2
I846
tp1860
a(I2
I846
tp1861
a(I2
I846
tp1862
a(I2
I846
tp1863
a(I2
I847
tp1864
a(I3
I846
tp1865
a(I2
I846
tp1866
a(I2
I846
tp1867
a(I2
I846
tp1868
a(I2
I847
tp1869
a(I2
I846
tp1870
a(I2
I846
tp1871
a(I2
I846
tp1872
a(I2
I846
tp1873
a(I2
I846
tp1874
a(I2
I846
tp1875
a(I2
I846
tp1876
a(I1
I846
tp1877
a(I2
I846
tp1878
a(I2
I846
tp1879
a(I2
I846
tp1880
a(I2
I846
tp1881
a(I2
I846
tp1882
a(I2
I846
tp1883
a(I2
I846
tp1884
a(I2
I846
tp1885
a(I2
I846
tp1886
a(I2
I846
tp1887
a(I2
I846
tp1888
a(I2
I846
tp1889
a(I2
I847
tp1890
a(I2
I846
tp1891
a(I2
I846
tp1892
a(I2
I846
tp1893
a(I2
I846
tp1894
a(I3
I846
tp1895
a(I2
I846
tp1896
a(I2
I846
tp1897
a(I2
I846
tp1898
a(I2
I846
tp1899
a(I2
I846
tp1900
a(I2
I846
tp1901
a(I2
I846
tp1902
a(I2
I846
tp1903
a(I2
I846
tp1904
a(I2
I846
tp1905
a(I2
I846
tp1906
a(I2
I846
tp1907
a(I2
I846
tp1908
a(I2
I846
tp1909
a(I2
I846
tp1910
a(I2
I846
tp1911
a(I2
I846
tp1912
a(I2
I846
tp1913
a(I2
I846
tp1914
a(I2
I846
tp1915
a(I2
I846
tp1916
a(I2
I845
tp1917
a(I2
I846
tp1918
a(I2
I846
tp1919
a(I2
I846
tp1920
a(I2
I804
tp1921
a(I2
I846
tp1922
a(I2
I846
tp1923
a(I2
I846
tp1924
a(I2
I846
tp1925
a(I2
I847
tp1926
a(I2
I846
tp1927
a(I2
I845
tp1928
a(I2
I846
tp1929
a(I2
I846
tp1930
a(I2
I846
tp1931
a(I2
I846
tp1932
a(I2
I846
tp1933
a(I2
I845
tp1934
a(I2
I846
tp1935
a(I2
I846
tp1936
a(I2
I847
tp1937
a(I2
I846
tp1938
a(I2
I846
tp1939
a(I2
I846
tp1940
a(I2
I847
tp1941
a(I2
I846
tp1942
a(I2
I847
tp1943
a(I2
I846
tp1944
a(I2
I846
tp1945
a(I2
I847
tp1946
a(I2
I846
tp1947
a(I2
I846
tp1948
a(I2
I845
tp1949
a(I2
I846
tp1950
a(I2
I847
tp1951
a(I2
I846
tp1952
a(I2
I846
tp1953
a(I2
I846
tp1954
a(I2
I846
tp1955
a(I2
I846
tp1956
a(I2
I847
tp1957
a(I2
I846
tp1958
a(I2
I846
tp1959
a(I2
I846
tp1960
a(I2
I846
tp1961
a(I2
I846
tp1962
a(I2
I846
tp1963
a(I2
I846
tp1964
a(I2
I846
tp1965
a(I2
I846
tp1966
a(I2
I846
tp1967
a(I2
I846
tp1968
a(I2
I846
tp1969
a(I2
I846
tp1970
a(I2
I846
tp1971
a(I2
I846
tp1972
a(I2
I846
tp1973
a(I2
I846
tp1974
a(I2
I846
tp1975
a(I2
I846
tp1976
a(I2
I846
tp1977
a(I2
I846
tp1978
a(I2
I846
tp1979
a(I2
I846
tp1980
a(I2
I846
tp1981
a(I2
I846
tp1982
a(I2
I847
tp1983
a(I2
I847
tp1984
a(I2
I846
tp1985
a(I2
I846
tp1986
a(I2
I846
tp1987
a(I2
I846
tp1988
a(I2
I846
tp1989
a(I2
I846
tp1990
a(I2
I846
tp1991
a(I2
I846
tp1992
a(I2
I846
tp1993
a(I2
I846
tp1994
a(I2
I846
tp1995
a(I2
I846
tp1996
a(I2
I846
tp1997
a(I2
I846
tp1998
a(I2
I846
tp1999
a(I2
I847
tp2000
a(I2
I846
tp2001
a(I3
I846
tp2002
a(I2
I846
tp2003
a(I2
I846
tp2004
a(I2
I847
tp2005
asS'RIGHT'
p2006
(lp2007
(I2
I846
tp2008
a(I2
I846
tp2009
a(I2
I846
tp2010
a(I2
I846
tp2011
a(I2
I846
tp2012
a(I2
I846
tp2013
a(I2
I846
tp2014
a(I2
I846
tp2015
a(I2
I846
tp2016
a(I2
I846
tp2017
a(I2
I846
tp2018
a(I2
I846
tp2019
a(I2
I845
tp2020
a(I2
I846
tp2021
a(I2
I846
tp2022
a(I2
I846
tp2023
a(I2
I846
tp2024
a(I2
I846
tp2025
a(I2
I846
tp2026
a(I2
I847
tp2027
a(I2
I846
tp2028
a(I2
I846
tp2029
a(I2
I846
tp2030
a(I2
I846
tp2031
a(I2
I846
tp2032
a(I3
I846
tp2033
a(I2
I846
tp2034
a(I2
I846
tp2035
a(I2
I846
tp2036
a(I2
I846
tp2037
a(I2
I846
tp2038
a(I2
I846
tp2039
a(I2
I846
tp2040
a(I2
I846
tp2041
a(I2
I846
tp2042
a(I2
I846
tp2043
a(I2
I846
tp2044
a(I2
I846
tp2045
a(I2
I846
tp2046
a(I2
I846
tp2047
a(I2
I846
tp2048
a(I2
I846
tp2049
a(I2
I846
tp2050
a(I2
I846
tp2051
a(I2
I846
tp2052
a(I2
I846
tp2053
a(I2
I846
tp2054
a(I2
I846
tp2055
a(I2
I846
tp2056
a(I2
I846
tp2057
a(I2
I846
tp2058
a(I2
I846
tp2059
a(I2
I847
tp2060
a(I2
I846
tp2061
a(I2
I846
tp2062
a(I2
I846
tp2063
a(I2
I846
tp2064
a(I2
I846
tp2065
a(I2
I846
tp2066
a(I2
I846
tp2067
a(I2
I846
tp2068
a(I2
I846
tp2069
a(I2
I846
tp2070
a(I2
I847
tp2071
a(I2
I846
tp2072
a(I2
I846
tp2073
a(I2
I846
tp2074
a(I2
I846
tp2075
a(I2
I846
tp2076
a(I2
I846
tp2077
a(I2
I846
tp2078
a(I2
I846
tp2079
a(I2
I846
tp2080
a(I2
I847
tp2081
a(I2
I846
tp2082
a(I2
I846
tp2083
a(I2
I846
tp2084
a(I3
I846
tp2085
a(I2
I846
tp2086
a(I2
I846
tp2087
a(I2
I846
tp2088
a(I2
I846
tp2089
a(I2
I846
tp2090
a(I2
I846
tp2091
a(I2
I847
tp2092
a(I2
I846
tp2093
a(I2
I846
tp2094
a(I2
I846
tp2095
a(I2
I846
tp2096
a(I2
I846
tp2097
a(I2
I846
tp2098
a(I2
I846
tp2099
a(I2
I846
tp2100
a(I2
I846
tp2101
a(I2
I846
tp2102
a(I2
I846
tp2103
a(I2
I846
tp2104
a(I2
I846
tp2105
a(I2
I846
tp2106
a(I2
I846
tp2107
a(I2
I846
tp2108
a(I2
I847
tp2109
a(I2
I846
tp2110
a(I2
I846
tp2111
a(I2
I846
tp2112
a(I2
I846
tp2113
a(I2
I846
tp2114
a(I2
I846
tp2115
a(I2
I846
tp2116
a(I2
I846
tp2117
a(I2
I846
tp2118
a(I2
I846
tp2119
a(I2
I846
tp2120
a(I2
I843
tp2121
a(I2
I846
tp2122
a(I2
I846
tp2123
a(I2
I846
tp2124
a(I2
I846
tp2125
a(I2
I846
tp2126
a(I2
I846
tp2127
a(I2
I846
tp2128
a(I2
I846
tp2129
a(I2
I846
tp2130
a(I2
I846
tp2131
a(I2
I846
tp2132
a(I2
I846
tp2133
a(I2
I846
tp2134
a(I2
I846
tp2135
a(I2
I846
tp2136
a(I2
I846
tp2137
a(I2
I846
tp2138
a(I2
I846
tp2139
a(I2
I846
tp2140
a(I2
I846
tp2141
a(I2
I846
tp2142
a(I2
I846
tp2143
a(I2
I846
tp2144
a(I2
I846
tp2145
a(I1
I846
tp2146
a(I2
I846
tp2147
a(I2
I846
tp2148
a(I2
I846
tp2149
a(I2
I846
tp2150
a(I2
I846
tp2151
a(I2
I846
tp2152
a(I2
I846
tp2153
a(I2
I847
tp2154
a(I2
I847
tp2155
a(I2
I846
tp2156
a(I2
I846
tp2157
a(I2
I846
tp2158
a(I2
I845
tp2159
a(I1
I846
tp2160
a(I2
I846
tp2161
a(I2
I847
tp2162
a(I2
I846
tp2163
a(I2
I846
tp2164
a(I2
I846
tp2165
a(I2
I846
tp2166
a(I2
I846
tp2167
a(I2
I846
tp2168
a(I2
I846
tp2169
a(I2
I846
tp2170
a(I2
I846
tp2171
a(I2
I846
tp2172
a(I2
I846
tp2173
a(I3
I846
tp2174
a(I2
I846
tp2175
a(I2
I846
tp2176
a(I2
I846
tp2177
a(I2
I846
tp2178
a(I2
I846
tp2179
a(I2
I846
tp2180
a(I2
I846
tp2181
a(I2
I846
tp2182
a(I2
I846
tp2183
a(I2
I846
tp2184
a(I2
I847
tp2185
a(I2
I846
tp2186
a(I2
I845
tp2187
a(I2
I847
tp2188
a(I2
I846
tp2189
a(I2
I846
tp2190
a(I2
I846
tp2191
a(I2
I846
tp2192
a(I2
I846
tp2193
a(I2
I846
tp2194
a(I2
I846
tp2195
a(I2
I847
tp2196
a(I2
I846
tp2197
a(I2
I846
tp2198
a(I2
I847
tp2199
a(I2
I846
tp2200
a(I2
I846
tp2201
a(I2
I846
tp2202
a(I2
I846
tp2203
a(I2
I846
tp2204
a(I2
I846
tp2205
a(I2
I846
tp2206
a(I2
I2
tp2207
a(I2
I846
tp2208
a(I2
I846
tp2209
a(I2
I846
tp2210
a(I3
I845
tp2211
a(I2
I846
tp2212
a(I2
I847
tp2213
a(I2
I846
tp2214
a(I2
I846
tp2215
a(I2
I846
tp2216
a(I2
I846
tp2217
a(I2
I815
tp2218
a(I2
I846
tp2219
a(I2
I846
tp2220
a(I2
I846
tp2221
a(I2
I846
tp2222
a(I2
I845
tp2223
a(I2
I847
tp2224
a(I2
I846
tp2225
a(I2
I846
tp2226
a(I2
I846
tp2227
a(I2
I846
tp2228
a(I2
I846
tp2229
a(I2
I846
tp2230
a(I2
I846
tp2231
a(I2
I846
tp2232
a(I2
I846
tp2233
a(I2
I846
tp2234
a(I2
I846
tp2235
a(I2
I846
tp2236
a(I2
I846
tp2237
a(I2
I846
tp2238
a(I2
I846
tp2239
a(I2
I846
tp2240
a(I2
I846
tp2241
a(I2
I846
tp2242
a(I2
I846
tp2243
a(I2
I846
tp2244
a(I2
I846
tp2245
a(I2
I846
tp2246
a(I2
I846
tp2247
a(I2
I846
tp2248
a(I2
I846
tp2249
a(I2
I846
tp2250
a(I2
I846
tp2251
a(I2
I846
tp2252
a(I2
I846
tp2253
a(I2
I846
tp2254
a(I2
I846
tp2255
a(I2
I782
tp2256
a(I2
I846
tp2257
a(I2
I846
tp2258
a(I2
I846
tp2259
a(I2
I846
tp2260
a(I2
I846
tp2261
a(I2
I846
tp2262
a(I2
I846
tp2263
a(I2
I846
tp2264
a(I2
I846
tp2265
a(I2
I846
tp2266
a(I2
I846
tp2267
a(I2
I846
tp2268
a(I2
I846
tp2269
a(I2
I846
tp2270
a(I2
I846
tp2271
a(I2
I846
tp2272
a(I2
I846
tp2273
a(I2
I846
tp2274
a(I2
I846
tp2275
a(I2
I846
tp2276
a(I2
I846
tp2277
a(I2
I846
tp2278
a(I2
I846
tp2279
a(I2
I846
tp2280
a(I2
I847
tp2281
a(I2
I846
tp2282
a(I1
I846
tp2283
a(I2
I846
tp2284
a(I2
I846
tp2285
a(I2
I846
tp2286
a(I2
I846
tp2287
a(I1
I421
tp2288
a(I2
I846
tp2289
a(I2
I846
tp2290
a(I2
I846
tp2291
a(I2
I799
tp2292
a(I2
I846
tp2293
a(I2
I846
tp2294
a(I2
I846
tp2295
a(I2
I846
tp2296
a(I2
I846
tp2297
a(I2
I846
tp2298
a(I2
I846
tp2299
a(I2
I846
tp2300
a(I2
I846
tp2301
a(I2
I846
tp2302
a(I2
I846
tp2303
a(I2
I846
tp2304
a(I2
I846
tp2305
a(I2
I846
tp2306
a(I2
I846
tp2307
a(I2
I846
tp2308
a(I2
I846
tp2309
a(I2
I846
tp2310
a(I2
I846
tp2311
a(I2
I846
tp2312
a(I2
I846
tp2313
a(I2
I846
tp2314
a(I2
I846
tp2315
a(I2
I846
tp2316
a(I2
I846
tp2317
a(I2
I847
tp2318
a(I2
I846
tp2319
a(I2
I846
tp2320
a(I2
I846
tp2321
a(I2
I846
tp2322
a(I2
I846
tp2323
a(I2
I846
tp2324
a(I2
I846
tp2325
a(I2
I846
tp2326
a(I2
I846
tp2327
a(I2
I846
tp2328
a(I2
I846
tp2329
a(I2
I846
tp2330
a(I2
I846
tp2331
a(I2
I846
tp2332
a(I2
I846
tp2333
a(I2
I846
tp2334
a(I2
I846
tp2335
a(I2
I846
tp2336
a(I2
I846
tp2337
a(I2
I847
tp2338
a(I2
I846
tp2339
a(I2
I846
tp2340
a(I2
I846
tp2341
a(I2
I847
tp2342
a(I2
I846
tp2343
a(I2
I846
tp2344
a(I2
I846
tp2345
a(I2
I846
tp2346
a(I2
I847
tp2347
a(I2
I846
tp2348
a(I2
I846
tp2349
a(I2
I846
tp2350
a(I2
I846
tp2351
a(I2
I846
tp2352
a(I2
I846
tp2353
a(I2
I846
tp2354
a(I2
I846
tp2355
a(I2
I846
tp2356
a(I2
I846
tp2357
a(I2
I846
tp2358
a(I2
I846
tp2359
a(I2
I846
tp2360
a(I2
I846
tp2361
a(I2
I846
tp2362
a(I2
I846
tp2363
a(I2
I846
tp2364
a(I2
I846
tp2365
a(I2
I846
tp2366
a(I2
I846
tp2367
a(I2
I846
tp2368
a(I2
I846
tp2369
a(I2
I846
tp2370
a(I2
I846
tp2371
a(I2
I846
tp2372
a(I2
I846
tp2373
a(I2
I846
tp2374
a(I2
I846
tp2375
a(I2
I846
tp2376
a(I2
I846
tp2377
a(I2
I846
tp2378
a(I2
I846
tp2379
a(I2
I846
tp2380
a(I2
I846
tp2381
a(I2
I846
tp2382
a(I2
I846
tp2383
a(I2
I846
tp2384
a(I2
I846
tp2385
a(I2
I846
tp2386
a(I2
I846
tp2387
a(I2
I846
tp2388
a(I2
I846
tp2389
a(I2
I846
tp2390
a(I2
I846
tp2391
a(I2
I846
tp2392
a(I2
I846
tp2393
a(I2
I846
tp2394
a(I2
I847
tp2395
a(I2
I846
tp2396
a(I2
I846
tp2397
a(I2
I846
tp2398
a(I2
I846
tp2399
a(I2
I846
tp2400
a(I2
I846
tp2401
a(I2
I846
tp2402
a(I2
I846
tp2403
a(I2
I847
tp2404
a(I2
I846
tp2405
a(I2
I846
tp2406
a(I3
I846
tp2407
a(I2
I846
tp2408
a(I2
I846
tp2409
a(I2
I847
tp2410
a(I2
I846
tp2411
a(I2
I846
tp2412
a(I2
I846
tp2413
a(I2
I846
tp2414
a(I2
I847
tp2415
a(I2
I846
tp2416
a(I2
I847
tp2417
a(I2
I846
tp2418
a(I2
I846
tp2419
a(I2
I846
tp2420
a(I2
I846
tp2421
a(I2
I847
tp2422
a(I2
I847
tp2423
a(I2
I846
tp2424
a(I2
I846
tp2425
a(I2
I846
tp2426
a(I2
I846
tp2427
a(I2
I846
tp2428
a(I2
I846
tp2429
a(I2
I846
tp2430
a(I2
I846
tp2431
a(I2
I846
tp2432
a(I2
I846
tp2433
a(I2
I847
tp2434
a(I2
I846
tp2435
a(I2
I846
tp2436
a(I2
I846
tp2437
a(I2
I774
tp2438
a(I2
I846
tp2439
a(I2
I847
tp2440
a(I2
I846
tp2441
a(I2
I846
tp2442
a(I2
I846
tp2443
a(I2
I846
tp2444
a(I2
I846
tp2445
a(I2
I846
tp2446
a(I2
I846
tp2447
a(I2
I846
tp2448
a(I2
I846
tp2449
a(I2
I807
tp2450
a(I2
I846
tp2451
a(I2
I846
tp2452
a(I2
I846
tp2453
a(I2
I846
tp2454
a(I2
I846
tp2455
a(I3
I846
tp2456
a(I2
I846
tp2457
a(I2
I844
tp2458
a(I2
I846
tp2459
a(I2
I846
tp2460
a(I2
I846
tp2461
a(I2
I846
tp2462
a(I2
I846
tp2463
a(I2
I846
tp2464
a(I2
I846
tp2465
a(I2
I846
tp2466
a(I2
I846
tp2467
a(I2
I846
tp2468
a(I2
I846
tp2469
a(I2
I846
tp2470
a(I2
I846
tp2471
a(I2
I846
tp2472
a(I2
I846
tp2473
a(I2
I847
tp2474
a(I2
I846
tp2475
a(I2
I846
tp2476
a(I2
I846
tp2477
a(I2
I846
tp2478
a(I2
I846
tp2479
a(I2
I846
tp2480
a(I2
I846
tp2481
a(I2
I846
tp2482
a(I2
I846
tp2483
a(I2
I846
tp2484
a(I2
I846
tp2485
a(I2
I836
tp2486
a(I2
I846
tp2487
a(I2
I846
tp2488
a(I2
I846
tp2489
a(I2
I846
tp2490
a(I2
I846
tp2491
a(I2
I846
tp2492
a(I2
I846
tp2493
a(I2
I846
tp2494
a(I2
I845
tp2495
a(I2
I846
tp2496
a(I2
I846
tp2497
a(I2
I846
tp2498
a(I2
I847
tp2499
a(I2
I846
tp2500
a(I2
I846
tp2501
a(I2
I846
tp2502
a(I2
I846
tp2503
a(I2
I846
tp2504
a(I2
I846
tp2505
a(I2
I846
tp2506
a(I2
I846
tp2507
a(I2
I846
tp2508
a(I2
I846
tp2509
a(I2
I846
tp2510
a(I2
I846
tp2511
a(I2
I846
tp2512
a(I2
I846
tp2513
a(I2
I846
tp2514
a(I2
I846
tp2515
a(I2
I846
tp2516
a(I2
I846
tp2517
a(I2
I846
tp2518
a(I2
I846
tp2519
a(I2
I846
tp2520
a(I2
I846
tp2521
a(I2
I846
tp2522
a(I2
I846
tp2523
a(I2
I846
tp2524
a(I2
I845
tp2525
a(I2
I846
tp2526
a(I2
I846
tp2527
a(I2
I846
tp2528
a(I2
I846
tp2529
a(I2
I845
tp2530
a(I2
I846
tp2531
a(I2
I847
tp2532
a(I2
I846
tp2533
a(I2
I846
tp2534
a(I2
I846
tp2535
a(I2
I846
tp2536
a(I2
I846
tp2537
a(I2
I846
tp2538
a(I2
I846
tp2539
a(I2
I846
tp2540
a(I2
I846
tp2541
a(I2
I846
tp2542
a(I2
I846
tp2543
a(I2
I846
tp2544
a(I2
I846
tp2545
a(I2
I846
tp2546
a(I1
I846
tp2547
a(I2
I846
tp2548
a(I2
I846
tp2549
a(I2
I846
tp2550
a(I2
I846
tp2551
a(I2
I846
tp2552
a(I2
I846
tp2553
a(I2
I846
tp2554
a(I2
I846
tp2555
a(I2
I846
tp2556
a(I2
I846
tp2557
a(I2
I846
tp2558
a(I2
I846
tp2559
a(I2
I846
tp2560
a(I2
I846
tp2561
a(I2
I847
tp2562
a(I2
I846
tp2563
a(I2
I846
tp2564
a(I2
I846
tp2565
a(I2
I846
tp2566
a(I2
I846
tp2567
a(I2
I846
tp2568
a(I2
I846
tp2569
a(I2
I846
tp2570
a(I2
I846
tp2571
a(I2
I846
tp2572
a(I2
I846
tp2573
a(I2
I846
tp2574
a(I2
I846
tp2575
a(I2
I846
tp2576
a(I2
I846
tp2577
a(I2
I846
tp2578
a(I2
I846
tp2579
a(I2
I846
tp2580
a(I2
I846
tp2581
a(I2
I846
tp2582
a(I2
I846
tp2583
a(I2
I846
tp2584
a(I2
I846
tp2585
a(I2
I846
tp2586
a(I2
I846
tp2587
a(I2
I845
tp2588
a(I2
I846
tp2589
a(I2
I846
tp2590
a(I2
I846
tp2591
a(I2
I846
tp2592
a(I2
I846
tp2593
a(I2
I846
tp2594
a(I2
I846
tp2595
a(I1
I846
tp2596
a(I2
I846
tp2597
a(I2
I846
tp2598
a(I2
I846
tp2599
a(I2
I846
tp2600
a(I2
I846
tp2601
a(I2
I846
tp2602
a(I2
I846
tp2603
a(I2
I846
tp2604
a(I2
I845
tp2605
a(I2
I846
tp2606
a(I2
I846
tp2607
a(I2
I846
tp2608
a(I2
I846
tp2609
a(I2
I846
tp2610
a(I2
I846
tp2611
a(I2
I846
tp2612
a(I2
I846
tp2613
a(I2
I846
tp2614
a(I2
I846
tp2615
a(I2
I846
tp2616
a(I2
I846
tp2617
a(I2
I846
tp2618
a(I2
I845
tp2619
a(I2
I846
tp2620
a(I2
I846
tp2621
a(I2
I847
tp2622
a(I2
I846
tp2623
a(I2
I846
tp2624
a(I2
I846
tp2625
a(I2
I846
tp2626
a(I2
I846
tp2627
a(I2
I846
tp2628
a(I2
I846
tp2629
a(I2
I846
tp2630
a(I2
I846
tp2631
a(I2
I846
tp2632
a(I2
I846
tp2633
a(I2
I845
tp2634
a(I2
I846
tp2635
a(I2
I846
tp2636
a(I2
I846
tp2637
a(I2
I846
tp2638
a(I2
I847
tp2639
a(I2
I846
tp2640
a(I2
I846
tp2641
a(I2
I846
tp2642
a(I2
I846
tp2643
a(I2
I846
tp2644
a(I2
I847
tp2645
a(I2
I846
tp2646
a(I2
I846
tp2647
a(I2
I846
tp2648
a(I2
I846
tp2649
a(I2
I846
tp2650
a(I2
I846
tp2651
a(I2
I846
tp2652
a(I2
I846
tp2653
a(I2
I846
tp2654
a(I2
I846
tp2655
a(I2
I846
tp2656
a(I2
I846
tp2657
a(I2
I846
tp2658
a(I2
I846
tp2659
a(I2
I846
tp2660
a(I2
I846
tp2661
a(I2
I846
tp2662
a(I2
I846
tp2663
a(I2
I846
tp2664
a(I2
I846
tp2665
a(I2
I846
tp2666
a(I2
I846
tp2667
a(I2
I846
tp2668
a(I2
I846
tp2669
a(I2
I846
tp2670
a(I2
I846
tp2671
a(I2
I846
tp2672
a(I1
I846
tp2673
a(I2
I847
tp2674
a(I2
I846
tp2675
a(I2
I846
tp2676
a(I2
I846
tp2677
a(I2
I846
tp2678
a(I2
I846
tp2679
a(I2
I846
tp2680
a(I2
I846
tp2681
a(I2
I846
tp2682
a(I2
I846
tp2683
a(I2
I846
tp2684
a(I2
I846
tp2685
a(I2
I846
tp2686
a(I2
I846
tp2687
a(I2
I846
tp2688
a(I2
I846
tp2689
a(I2
I846
tp2690
a(I2
I846
tp2691
a(I2
I846
tp2692
a(I2
I846
tp2693
a(I2
I846
tp2694
a(I2
I846
tp2695
a(I2
I846
tp2696
a(I2
I846
tp2697
a(I2
I846
tp2698
a(I3
I846
tp2699
a(I2
I847
tp2700
a(I2
I846
tp2701
a(I3
I846
tp2702
a(I2
I846
tp2703
a(I3
I846
tp2704
a(I2
I846
tp2705
a(I2
I846
tp2706
a(I2
I846
tp2707
a(I2
I841
tp2708
a(I2
I846
tp2709
a(I2
I846
tp2710
a(I2
I846
tp2711
a(I2
I846
tp2712
a(I2
I846
tp2713
a(I2
I846
tp2714
a(I2
I846
tp2715
a(I2
I846
tp2716
a(I2
I846
tp2717
a(I2
I846
tp2718
a(I2
I846
tp2719
a(I2
I846
tp2720
a(I2
I846
tp2721
a(I2
I845
tp2722
a(I2
I846
tp2723
a(I2
I846
tp2724
a(I2
I846
tp2725
a(I2
I846
tp2726
a(I2
I845
tp2727
a(I2
I846
tp2728
a(I2
I846
tp2729
a(I2
I846
tp2730
a(I2
I846
tp2731
a(I2
I846
tp2732
a(I2
I846
tp2733
a(I2
I846
tp2734
a(I2
I846
tp2735
a(I2
I847
tp2736
a(I2
I846
tp2737
a(I2
I846
tp2738
a(I2
I846
tp2739
a(I2
I846
tp2740
a(I2
I846
tp2741
a(I2
I846
tp2742
a(I3
I846
tp2743
a(I2
I846
tp2744
a(I2
I846
tp2745
a(I2
I846
tp2746
a(I2
I846
tp2747
a(I2
I846
tp2748
a(I2
I846
tp2749
a(I1
I846
tp2750
a(I2
I846
tp2751
a(I2
I846
tp2752
a(I2
I846
tp2753
a(I2
I846
tp2754
a(I2
I846
tp2755
a(I2
I846
tp2756
a(I2
I846
tp2757
a(I2
I846
tp2758
a(I2
I846
tp2759
a(I2
I846
tp2760
a(I2
I847
tp2761
a(I2
I846
tp2762
a(I2
I846
tp2763
a(I2
I846
tp2764
a(I2
I846
tp2765
a(I2
I847
tp2766
a(I2
I846
tp2767
a(I2
I846
tp2768
a(I2
I846
tp2769
a(I3
I846
tp2770
a(I2
I847
tp2771
a(I2
I846
tp2772
a(I2
I846
tp2773
a(I1
I846
tp2774
a(I2
I846
tp2775
a(I2
I846
tp2776
a(I2
I846
tp2777
a(I2
I846
tp2778
a(I2
I846
tp2779
a(I2
I846
tp2780
a(I2
I846
tp2781
a(I2
I846
tp2782
a(I2
I846
tp2783
a(I2
I846
tp2784
a(I2
I846
tp2785
a(I3
I846
tp2786
a(I2
I846
tp2787
a(I2
I846
tp2788
a(I2
I846
tp2789
a(I2
I847
tp2790
a(I3
I846
tp2791
a(I2
I846
tp2792
a(I2
I846
tp2793
a(I2
I846
tp2794
a(I2
I846
tp2795
a(I2
I846
tp2796
a(I3
I846
tp2797
a(I2
I846
tp2798
a(I2
I846
tp2799
a(I2
I846
tp2800
a(I2
I846
tp2801
a(I2
I847
tp2802
a(I2
I846
tp2803
a(I2
I846
tp2804
a(I2
I846
tp2805
a(I2
I846
tp2806
a(I2
I847
tp2807
a(I2
I846
tp2808
a(I2
I846
tp2809
a(I2
I847
tp2810
a(I2
I846
tp2811
a(I2
I846
tp2812
a(I2
I846
tp2813
a(I2
I846
tp2814
a(I2
I846
tp2815
a(I2
I846
tp2816
a(I2
I846
tp2817
a(I2
I846
tp2818
a(I2
I846
tp2819
a(I2
I846
tp2820
a(I2
I846
tp2821
a(I2
I846
tp2822
a(I2
I846
tp2823
a(I2
I846
tp2824
a(I2
I846
tp2825
a(I2
I846
tp2826
a(I2
I846
tp2827
a(I2
I846
tp2828
a(I2
I846
tp2829
a(I2
I846
tp2830
a(I2
I846
tp2831
a(I2
I846
tp2832
a(I2
I846
tp2833
a(I2
I846
tp2834
a(I2
I846
tp2835
a(I2
I846
tp2836
a(I2
I847
tp2837
a(I2
I846
tp2838
a(I2
I846
tp2839
a(I2
I846
tp2840
a(I2
I846
tp2841
a(I2
I846
tp2842
a(I2
I846
tp2843
a(I2
I846
tp2844
a(I2
I846
tp2845
a(I2
I846
tp2846
a(I2
I846
tp2847
a(I2
I847
tp2848
a(I2
I846
tp2849
a(I2
I846
tp2850
a(I2
I846
tp2851
a(I2
I846
tp2852
a(I2
I846
tp2853
a(I2
I846
tp2854
a(I2
I846
tp2855
a(I2
I846
tp2856
a(I2
I846
tp2857
a(I2
I846
tp2858
a(I2
I846
tp2859
a(I2
I846
tp2860
a(I2
I846
tp2861
a(I2
I846
tp2862
a(I2
I846
tp2863
a(I2
I846
tp2864
a(I2
I846
tp2865
a(I2
I846
tp2866
a(I2
I846
tp2867
a(I2
I847
tp2868
a(I2
I846
tp2869
a(I2
I846
tp2870
a(I2
I846
tp2871
a(I2
I846
tp2872
a(I2
I846
tp2873
a(I2
I846
tp2874
a(I2
I846
tp2875
a(I2
I846
tp2876
a(I2
I846
tp2877
a(I2
I846
tp2878
a(I2
I846
tp2879
a(I2
I846
tp2880
a(I2
I846
tp2881
a(I2
I846
tp2882
a(I2
I846
tp2883
a(I2
I846
tp2884
a(I2
I846
tp2885
a(I2
I847
tp2886
a(I2
I846
tp2887
a(I2
I846
tp2888
a(I2
I846
tp2889
a(I2
I846
tp2890
a(I2
I846
tp2891
a(I2
I846
tp2892
a(I2
I847
tp2893
a(I2
I846
tp2894
a(I2
I846
tp2895
a(I2
I846
tp2896
a(I2
I847
tp2897
a(I2
I846
tp2898
a(I2
I846
tp2899
a(I2
I846
tp2900
a(I2
I846
tp2901
a(I2
I846
tp2902
a(I2
I846
tp2903
a(I3
I846
tp2904
a(I2
I846
tp2905
a(I2
I846
tp2906
a(I2
I846
tp2907
a(I2
I845
tp2908
a(I2
I846
tp2909
a(I2
I846
tp2910
a(I2
I846
tp2911
a(I2
I846
tp2912
a(I2
I846
tp2913
a(I2
I846
tp2914
a(I2
I846
tp2915
a(I2
I846
tp2916
a(I2
I846
tp2917
a(I2
I846
tp2918
a(I2
I846
tp2919
a(I2
I845
tp2920
a(I2
I846
tp2921
a(I2
I846
tp2922
a(I2
I846
tp2923
a(I2
I846
tp2924
a(I2
I846
tp2925
a(I2
I846
tp2926
a(I2
I846
tp2927
a(I2
I847
tp2928
a(I2
I846
tp2929
a(I2
I846
tp2930
a(I2
I847
tp2931
a(I2
I846
tp2932
a(I3
I846
tp2933
a(I2
I846
tp2934
a(I2
I846
tp2935
a(I2
I846
tp2936
a(I2
I846
tp2937
a(I2
I847
tp2938
a(I2
I846
tp2939
a(I2
I845
tp2940
a(I2
I846
tp2941
a(I2
I846
tp2942
a(I2
I846
tp2943
a(I2
I846
tp2944
a(I2
I846
tp2945
a(I2
I846
tp2946
a(I3
I846
tp2947
a(I2
I847
tp2948
a(I2
I846
tp2949
a(I2
I846
tp2950
a(I2
I846
tp2951
a(I2
I846
tp2952
a(I2
I846
tp2953
a(I2
I846
tp2954
a(I2
I846
tp2955
a(I2
I846
tp2956
a(I2
I847
tp2957
a(I2
I846
tp2958
a(I2
I846
tp2959
a(I2
I846
tp2960
a(I2
I846
tp2961
a(I2
I846
tp2962
a(I2
I846
tp2963
a(I2
I846
tp2964
a(I2
I846
tp2965
a(I2
I846
tp2966
a(I2
I846
tp2967
a(I2
I846
tp2968
a(I2
I846
tp2969
a(I2
I846
tp2970
a(I2
I847
tp2971
a(I2
I846
tp2972
a(I2
I846
tp2973
a(I2
I846
tp2974
a(I2
I846
tp2975
a(I2
I846
tp2976
a(I2
I847
tp2977
a(I2
I846
tp2978
a(I2
I846
tp2979
a(I2
I846
tp2980
a(I2
I846
tp2981
a(I2
I846
tp2982
a(I2
I846
tp2983
a(I2
I846
tp2984
a(I2
I846
tp2985
a(I2
I846
tp2986
a(I2
I847
tp2987
a(I2
I846
tp2988
a(I2
I846
tp2989
a(I2
I846
tp2990
a(I2
I846
tp2991
a(I2
I846
tp2992
a(I3
I846
tp2993
a(I2
I61
tp2994
a(I2
I846
tp2995
a(I2
I846
tp2996
a(I2
I846
tp2997
a(I2
I846
tp2998
a(I2
I846
tp2999
a(I2
I846
tp3000
a(I1
I846
tp3001
a(I2
I846
tp3002
a(I2
I846
tp3003
a(I2
I846
tp3004
a(I2
I846
tp3005
a(I2
I846
tp3006
a(I2
I846
tp3007
asS'DOWN-RIGHT'
p3008
(lp3009
(I2
I846
tp3010
a(I2
I846
tp3011
a(I2
I847
tp3012
a(I3
I846
tp3013
a(I2
I846
tp3014
a(I2
I846
tp3015
a(I2
I846
tp3016
a(I2
I261
tp3017
a(I2
I846
tp3018
a(I2
I846
tp3019
a(I2
I846
tp3020
a(I2
I846
tp3021
a(I2
I847
tp3022
a(I2
I734
tp3023
a(I2
I846
tp3024
a(I2
I846
tp3025
a(I2
I846
tp3026
a(I2
I846
tp3027
a(I2
I846
tp3028
a(I2
I846
tp3029
a(I2
I846
tp3030
a(I2
I846
tp3031
a(I2
I846
tp3032
a(I2
I846
tp3033
a(I2
I846
tp3034
a(I2
I846
tp3035
a(I2
I846
tp3036
a(I2
I846
tp3037
a(I2
I846
tp3038
a(I2
I846
tp3039
a(I2
I812
tp3040
a(I2
I846
tp3041
a(I2
I846
tp3042
a(I2
I846
tp3043
a(I2
I846
tp3044
a(I2
I847
tp3045
a(I2
I846
tp3046
a(I2
I846
tp3047
a(I2
I846
tp3048
a(I2
I847
tp3049
a(I2
I846
tp3050
a(I2
I846
tp3051
a(I2
I846
tp3052
a(I2
I845
tp3053
a(I2
I846
tp3054
a(I2
I846
tp3055
a(I2
I846
tp3056
a(I2
I846
tp3057
a(I2
I846
tp3058
a(I2
I846
tp3059
a(I2
I846
tp3060
a(I2
I846
tp3061
a(I2
I846
tp3062
a(I2
I846
tp3063
a(I2
I846
tp3064
a(I2
I846
tp3065
a(I3
I846
tp3066
a(I2
I846
tp3067
a(I2
I846
tp3068
a(I2
I847
tp3069
a(I2
I846
tp3070
a(I2
I846
tp3071
a(I2
I846
tp3072
a(I2
I846
tp3073
a(I2
I846
tp3074
a(I2
I846
tp3075
a(I2
I846
tp3076
a(I2
I846
tp3077
a(I3
I845
tp3078
a(I2
I846
tp3079
a(I2
I846
tp3080
a(I2
I846
tp3081
a(I2
I846
tp3082
a(I2
I846
tp3083
a(I2
I846
tp3084
a(I2
I846
tp3085
a(I2
I846
tp3086
a(I2
I846
tp3087
a(I2
I846
tp3088
a(I2
I846
tp3089
a(I2
I846
tp3090
a(I2
I846
tp3091
a(I2
I846
tp3092
a(I2
I846
tp3093
a(I2
I846
tp3094
a(I2
I846
tp3095
a(I2
I845
tp3096
a(I2
I846
tp3097
a(I2
I846
tp3098
a(I2
I846
tp3099
a(I2
I846
tp3100
a(I2
I846
tp3101
a(I2
I846
tp3102
a(I2
I846
tp3103
a(I2
I847
tp3104
a(I2
I846
tp3105
a(I2
I846
tp3106
a(I2
I846
tp3107
a(I2
I846
tp3108
a(I2
I846
tp3109
a(I2
I846
tp3110
a(I2
I846
tp3111
a(I2
I847
tp3112
a(I2
I846
tp3113
a(I2
I846
tp3114
a(I2
I847
tp3115
a(I2
I846
tp3116
a(I2
I846
tp3117
a(I2
I846
tp3118
a(I2
I846
tp3119
a(I2
I846
tp3120
a(I2
I847
tp3121
a(I2
I846
tp3122
a(I2
I846
tp3123
a(I2
I846
tp3124
a(I2
I846
tp3125
a(I2
I846
tp3126
a(I2
I846
tp3127
a(I2
I846
tp3128
a(I2
I846
tp3129
a(I2
I846
tp3130
a(I2
I846
tp3131
a(I2
I846
tp3132
a(I2
I846
tp3133
a(I2
I846
tp3134
a(I2
I846
tp3135
a(I2
I846
tp3136
a(I2
I846
tp3137
a(I2
I846
tp3138
a(I2
I846
tp3139
a(I2
I846
tp3140
a(I2
I846
tp3141
a(I1
I846
tp3142
a(I2
I846
tp3143
a(I2
I846
tp3144
a(I2
I846
tp3145
a(I2
I840
tp3146
a(I2
I846
tp3147
a(I2
I846
tp3148
a(I2
I847
tp3149
a(I2
I846
tp3150
a(I2
I846
tp3151
a(I2
I846
tp3152
a(I2
I846
tp3153
a(I2
I846
tp3154
a(I2
I846
tp3155
a(I2
I846
tp3156
a(I2
I846
tp3157
a(I2
I846
tp3158
a(I2
I845
tp3159
a(I2
I846
tp3160
a(I2
I846
tp3161
a(I2
I846
tp3162
a(I2
I846
tp3163
a(I2
I846
tp3164
a(I2
I846
tp3165
a(I2
I846
tp3166
a(I2
I846
tp3167
a(I2
I846
tp3168
a(I2
I846
tp3169
a(I2
I846
tp3170
a(I2
I846
tp3171
a(I2
I846
tp3172
a(I2
I846
tp3173
a(I2
I846
tp3174
a(I2
I846
tp3175
a(I2
I847
tp3176
a(I2
I846
tp3177
a(I2
I846
tp3178
a(I2
I846
tp3179
a(I2
I846
tp3180
a(I2
I846
tp3181
a(I2
I846
tp3182
a(I2
I846
tp3183
a(I2
I846
tp3184
a(I2
I846
tp3185
a(I2
I846
tp3186
a(I2
I846
tp3187
a(I2
I845
tp3188
a(I2
I846
tp3189
a(I2
I846
tp3190
a(I2
I847
tp3191
a(I2
I846
tp3192
a(I2
I845
tp3193
a(I2
I846
tp3194
a(I2
I846
tp3195
a(I2
I847
tp3196
a(I2
I846
tp3197
a(I2
I846
tp3198
a(I2
I846
tp3199
a(I3
I846
tp3200
a(I2
I846
tp3201
a(I2
I846
tp3202
a(I2
I846
tp3203
a(I2
I847
tp3204
a(I2
I847
tp3205
a(I2
I846
tp3206
a(I2
I846
tp3207
a(I2
I846
tp3208
a(I2
I847
tp3209
a(I2
I846
tp3210
a(I2
I846
tp3211
a(I2
I846
tp3212
a(I2
I847
tp3213
a(I2
I846
tp3214
a(I2
I846
tp3215
a(I2
I846
tp3216
a(I2
I846
tp3217
a(I2
I846
tp3218
a(I2
I846
tp3219
a(I1
I846
tp3220
a(I1
I846
tp3221
a(I2
I845
tp3222
a(I2
I846
tp3223
a(I2
I847
tp3224
a(I2
I846
tp3225
a(I2
I846
tp3226
a(I3
I846
tp3227
a(I2
I846
tp3228
a(I2
I847
tp3229
a(I2
I846
tp3230
a(I2
I846
tp3231
a(I2
I846
tp3232
a(I2
I846
tp3233
a(I2
I846
tp3234
a(I2
I846
tp3235
a(I2
I846
tp3236
a(I2
I846
tp3237
a(I2
I846
tp3238
a(I2
I846
tp3239
a(I2
I846
tp3240
a(I2
I846
tp3241
a(I2
I846
tp3242
a(I2
I846
tp3243
a(I2
I846
tp3244
a(I2
I846
tp3245
a(I2
I846
tp3246
a(I2
I846
tp3247
a(I2
I846
tp3248
a(I2
I846
tp3249
a(I2
I846
tp3250
a(I2
I846
tp3251
a(I2
I846
tp3252
a(I2
I846
tp3253
a(I2
I846
tp3254
a(I2
I846
tp3255
a(I2
I846
tp3256
a(I2
I846
tp3257
a(I2
I846
tp3258
a(I2
I846
tp3259
a(I2
I846
tp3260
a(I2
I846
tp3261
a(I2
I846
tp3262
a(I2
I846
tp3263
a(I2
I846
tp3264
a(I2
I846
tp3265
a(I2
I846
tp3266
a(I2
I846
tp3267
a(I2
I846
tp3268
a(I2
I846
tp3269
a(I2
I846
tp3270
a(I2
I846
tp3271
a(I2
I626
tp3272
a(I2
I846
tp3273
a(I2
I846
tp3274
a(I2
I846
tp3275
a(I2
I846
tp3276
a(I2
I846
tp3277
a(I2
I846
tp3278
a(I2
I846
tp3279
a(I2
I846
tp3280
a(I2
I846
tp3281
a(I2
I846
tp3282
a(I2
I846
tp3283
a(I2
I845
tp3284
a(I2
I846
tp3285
a(I2
I846
tp3286
a(I2
I846
tp3287
a(I2
I846
tp3288
a(I2
I846
tp3289
a(I1
I846
tp3290
a(I2
I846
tp3291
a(I2
I846
tp3292
a(I2
I846
tp3293
a(I2
I847
tp3294
a(I2
I847
tp3295
a(I2
I846
tp3296
a(I1
I846
tp3297
a(I2
I846
tp3298
a(I2
I846
tp3299
a(I2
I846
tp3300
a(I2
I847
tp3301
a(I1
I846
tp3302
a(I2
I846
tp3303
a(I2
I846
tp3304
a(I2
I846
tp3305
a(I2
I847
tp3306
a(I2
I846
tp3307
a(I2
I846
tp3308
a(I2
I846
tp3309
a(I2
I846
tp3310
a(I2
I846
tp3311
a(I2
I846
tp3312
a(I2
I847
tp3313
a(I2
I846
tp3314
a(I2
I846
tp3315
a(I2
I846
tp3316
a(I2
I846
tp3317
a(I2
I847
tp3318
a(I2
I846
tp3319
a(I2
I846
tp3320
a(I2
I846
tp3321
a(I2
I846
tp3322
a(I2
I846
tp3323
a(I2
I846
tp3324
a(I2
I846
tp3325
a(I2
I846
tp3326
a(I2
I846
tp3327
a(I2
I846
tp3328
a(I2
I846
tp3329
a(I2
I846
tp3330
a(I2
I846
tp3331
a(I2
I847
tp3332
a(I2
I846
tp3333
a(I2
I846
tp3334
a(I2
I846
tp3335
a(I2
I846
tp3336
a(I2
I846
tp3337
a(I2
I846
tp3338
a(I2
I846
tp3339
a(I2
I846
tp3340
a(I2
I846
tp3341
a(I2
I846
tp3342
a(I2
I846
tp3343
a(I2
I847
tp3344
a(I2
I846
tp3345
a(I2
I846
tp3346
a(I2
I846
tp3347
a(I2
I846
tp3348
a(I2
I847
tp3349
a(I2
I846
tp3350
a(I2
I846
tp3351
a(I2
I846
tp3352
a(I2
I846
tp3353
a(I2
I846
tp3354
a(I2
I847
tp3355
a(I2
I846
tp3356
a(I2
I846
tp3357
a(I2
I846
tp3358
a(I2
I846
tp3359
a(I2
I846
tp3360
a(I2
I846
tp3361
a(I2
I846
tp3362
a(I2
I846
tp3363
a(I2
I846
tp3364
a(I2
I846
tp3365
a(I2
I846
tp3366
a(I2
I846
tp3367
a(I2
I846
tp3368
a(I2
I846
tp3369
a(I2
I846
tp3370
a(I2
I846
tp3371
a(I2
I846
tp3372
a(I2
I846
tp3373
a(I2
I846
tp3374
a(I2
I846
tp3375
a(I2
I846
tp3376
a(I2
I846
tp3377
a(I2
I847
tp3378
a(I2
I847
tp3379
a(I2
I846
tp3380
a(I2
I846
tp3381
a(I2
I846
tp3382
a(I2
I846
tp3383
a(I2
I846
tp3384
a(I2
I846
tp3385
a(I2
I846
tp3386
a(I2
I846
tp3387
a(I2
I846
tp3388
a(I2
I846
tp3389
a(I2
I847
tp3390
a(I2
I846
tp3391
a(I2
I845
tp3392
a(I2
I846
tp3393
a(I2
I846
tp3394
a(I2
I847
tp3395
a(I2
I847
tp3396
a(I2
I846
tp3397
a(I2
I846
tp3398
a(I2
I846
tp3399
a(I2
I846
tp3400
a(I2
I847
tp3401
a(I2
I846
tp3402
a(I1
I846
tp3403
a(I2
I846
tp3404
a(I2
I846
tp3405
a(I2
I846
tp3406
a(I2
I846
tp3407
a(I2
I846
tp3408
a(I2
I846
tp3409
a(I2
I847
tp3410
a(I2
I846
tp3411
a(I2
I846
tp3412
a(I2
I846
tp3413
a(I2
I846
tp3414
a(I2
I846
tp3415
a(I2
I846
tp3416
a(I1
I846
tp3417
a(I2
I846
tp3418
a(I2
I846
tp3419
a(I2
I846
tp3420
a(I2
I846
tp3421
a(I2
I846
tp3422
a(I2
I846
tp3423
a(I2
I846
tp3424
a(I2
I846
tp3425
a(I2
I847
tp3426
a(I2
I846
tp3427
a(I2
I846
tp3428
a(I3
I846
tp3429
a(I2
I846
tp3430
a(I2
I846
tp3431
a(I2
I846
tp3432
a(I2
I846
tp3433
a(I2
I846
tp3434
a(I2
I846
tp3435
a(I2
I846
tp3436
a(I2
I846
tp3437
a(I2
I846
tp3438
a(I3
I846
tp3439
a(I2
I846
tp3440
a(I2
I846
tp3441
a(I2
I846
tp3442
a(I2
I845
tp3443
a(I2
I846
tp3444
a(I2
I846
tp3445
a(I2
I846
tp3446
a(I2
I846
tp3447
a(I2
I846
tp3448
a(I2
I846
tp3449
a(I2
I846
tp3450
a(I3
I846
tp3451
a(I2
I846
tp3452
a(I2
I846
tp3453
a(I2
I846
tp3454
a(I2
I845
tp3455
a(I2
I847
tp3456
a(I2
I846
tp3457
a(I2
I846
tp3458
a(I2
I846
tp3459
a(I2
I846
tp3460
a(I2
I846
tp3461
a(I2
I846
tp3462
a(I2
I846
tp3463
a(I2
I846
tp3464
a(I2
I846
tp3465
a(I2
I846
tp3466
a(I2
I846
tp3467
a(I3
I846
tp3468
a(I2
I846
tp3469
a(I2
I846
tp3470
a(I2
I846
tp3471
a(I2
I845
tp3472
a(I2
I846
tp3473
a(I2
I846
tp3474
a(I2
I846
tp3475
a(I2
I846
tp3476
a(I2
I846
tp3477
a(I2
I846
tp3478
a(I2
I846
tp3479
a(I2
I846
tp3480
a(I2
I846
tp3481
a(I2
I846
tp3482
a(I2
I846
tp3483
a(I3
I846
tp3484
a(I2
I846
tp3485
a(I2
I846
tp3486
a(I2
I846
tp3487
a(I2
I846
tp3488
a(I2
I846
tp3489
a(I2
I846
tp3490
a(I2
I846
tp3491
a(I2
I846
tp3492
a(I2
I846
tp3493
a(I2
I846
tp3494
a(I2
I846
tp3495
a(I2
I846
tp3496
a(I2
I846
tp3497
a(I2
I846
tp3498
a(I2
I846
tp3499
a(I2
I846
tp3500
a(I2
I846
tp3501
a(I2
I846
tp3502
a(I2
I847
tp3503
a(I2
I846
tp3504
a(I2
I846
tp3505
a(I2
I846
tp3506
a(I2
I846
tp3507
a(I2
I847
tp3508
a(I2
I846
tp3509
a(I2
I846
tp3510
a(I2
I846
tp3511
a(I2
I846
tp3512
a(I2
I846
tp3513
a(I2
I846
tp3514
a(I2
I846
tp3515
a(I2
I846
tp3516
a(I2
I846
tp3517
a(I2
I846
tp3518
a(I2
I846
tp3519
a(I2
I846
tp3520
a(I2
I846
tp3521
a(I2
I847
tp3522
a(I2
I846
tp3523
a(I2
I846
tp3524
a(I2
I846
tp3525
a(I2
I846
tp3526
a(I2
I846
tp3527
a(I3
I846
tp3528
a(I2
I846
tp3529
a(I2
I846
tp3530
a(I2
I846
tp3531
a(I2
I845
tp3532
a(I3
I846
tp3533
a(I2
I846
tp3534
a(I2
I846
tp3535
a(I2
I846
tp3536
a(I2
I846
tp3537
a(I2
I846
tp3538
a(I2
I846
tp3539
a(I2
I847
tp3540
a(I2
I846
tp3541
a(I2
I846
tp3542
a(I2
I846
tp3543
a(I2
I846
tp3544
a(I2
I846
tp3545
a(I2
I846
tp3546
a(I2
I846
tp3547
a(I2
I845
tp3548
a(I2
I846
tp3549
a(I2
I846
tp3550
a(I2
I846
tp3551
a(I2
I846
tp3552
a(I2
I846
tp3553
a(I2
I847
tp3554
a(I2
I846
tp3555
a(I2
I846
tp3556
a(I2
I846
tp3557
a(I2
I846
tp3558
a(I2
I846
tp3559
a(I2
I846
tp3560
a(I2
I845
tp3561
a(I2
I1
tp3562
a(I2
I846
tp3563
a(I2
I846
tp3564
a(I2
I846
tp3565
a(I2
I846
tp3566
a(I2
I846
tp3567
a(I2
I846
tp3568
a(I3
I846
tp3569
a(I2
I846
tp3570
a(I2
I847
tp3571
a(I2
I846
tp3572
a(I2
I846
tp3573
a(I2
I846
tp3574
a(I2
I847
tp3575
a(I2
I846
tp3576
a(I2
I846
tp3577
a(I2
I846
tp3578
a(I2
I846
tp3579
a(I2
I846
tp3580
a(I2
I846
tp3581
a(I2
I846
tp3582
a(I2
I846
tp3583
a(I2
I846
tp3584
a(I2
I846
tp3585
a(I2
I846
tp3586
a(I2
I846
tp3587
a(I2
I846
tp3588
a(I2
I846
tp3589
a(I2
I846
tp3590
a(I2
I846
tp3591
a(I2
I846
tp3592
a(I2
I846
tp3593
a(I2
I846
tp3594
a(I2
I847
tp3595
a(I2
I847
tp3596
a(I2
I846
tp3597
a(I2
I846
tp3598
a(I2
I846
tp3599
a(I2
I846
tp3600
a(I2
I846
tp3601
a(I2
I846
tp3602
a(I2
I846
tp3603
a(I2
I846
tp3604
a(I2
I846
tp3605
a(I2
I846
tp3606
a(I2
I846
tp3607
a(I2
I846
tp3608
a(I2
I846
tp3609
a(I2
I846
tp3610
a(I2
I846
tp3611
a(I2
I846
tp3612
a(I2
I846
tp3613
a(I2
I846
tp3614
a(I2
I846
tp3615
a(I2
I846
tp3616
a(I2
I847
tp3617
a(I2
I846
tp3618
a(I2
I846
tp3619
a(I2
I846
tp3620
a(I2
I846
tp3621
a(I1
I846
tp3622
a(I2
I845
tp3623
a(I2
I846
tp3624
a(I2
I846
tp3625
a(I2
I847
tp3626
a(I2
I846
tp3627
a(I2
I846
tp3628
a(I1
I846
tp3629
a(I2
I846
tp3630
a(I2
I846
tp3631
a(I2
I846
tp3632
a(I2
I847
tp3633
a(I2
I846
tp3634
a(I2
I846
tp3635
a(I2
I846
tp3636
a(I2
I846
tp3637
a(I2
I846
tp3638
a(I2
I846
tp3639
a(I2
I846
tp3640
a(I2
I846
tp3641
a(I2
I846
tp3642
a(I2
I846
tp3643
a(I2
I846
tp3644
a(I2
I846
tp3645
a(I2
I846
tp3646
a(I2
I846
tp3647
a(I2
I846
tp3648
a(I2
I846
tp3649
a(I2
I846
tp3650
a(I2
I846
tp3651
a(I2
I846
tp3652
a(I2
I847
tp3653
a(I2
I846
tp3654
a(I2
I846
tp3655
a(I2
I846
tp3656
a(I2
I846
tp3657
a(I2
I846
tp3658
a(I2
I847
tp3659
a(I2
I846
tp3660
a(I2
I846
tp3661
a(I2
I846
tp3662
a(I2
I846
tp3663
a(I2
I846
tp3664
a(I2
I845
tp3665
a(I2
I846
tp3666
a(I2
I846
tp3667
a(I2
I846
tp3668
a(I2
I846
tp3669
a(I2
I846
tp3670
a(I2
I846
tp3671
a(I2
I846
tp3672
a(I2
I846
tp3673
a(I2
I846
tp3674
a(I2
I846
tp3675
a(I2
I846
tp3676
a(I2
I847
tp3677
a(I2
I846
tp3678
a(I2
I846
tp3679
a(I2
I846
tp3680
a(I2
I846
tp3681
a(I2
I846
tp3682
a(I2
I846
tp3683
a(I2
I846
tp3684
a(I2
I846
tp3685
a(I2
I845
tp3686
a(I2
I846
tp3687
a(I2
I846
tp3688
a(I2
I846
tp3689
a(I2
I846
tp3690
a(I2
I846
tp3691
a(I1
I846
tp3692
a(I2
I846
tp3693
a(I2
I846
tp3694
a(I2
I846
tp3695
a(I2
I847
tp3696
a(I2
I846
tp3697
a(I2
I846
tp3698
a(I3
I846
tp3699
a(I2
I846
tp3700
a(I2
I846
tp3701
a(I2
I846
tp3702
a(I2
I846
tp3703
a(I2
I846
tp3704
a(I2
I846
tp3705
a(I2
I846
tp3706
a(I2
I846
tp3707
a(I2
I844
tp3708
a(I2
I846
tp3709
a(I2
I846
tp3710
a(I2
I846
tp3711
a(I2
I846
tp3712
a(I2
I846
tp3713
a(I2
I846
tp3714
a(I2
I846
tp3715
a(I2
I846
tp3716
a(I2
I846
tp3717
a(I2
I846
tp3718
a(I2
I846
tp3719
a(I2
I846
tp3720
a(I2
I846
tp3721
a(I2
I846
tp3722
a(I2
I846
tp3723
a(I2
I846
tp3724
a(I2
I846
tp3725
a(I2
I846
tp3726
a(I2
I845
tp3727
a(I2
I846
tp3728
a(I2
I846
tp3729
a(I2
I846
tp3730
a(I2
I846
tp3731
a(I2
I846
tp3732
a(I2
I846
tp3733
a(I2
I846
tp3734
a(I2
I846
tp3735
a(I2
I846
tp3736
a(I2
I846
tp3737
a(I2
I846
tp3738
a(I2
I846
tp3739
a(I2
I846
tp3740
a(I2
I846
tp3741
a(I2
I846
tp3742
a(I2
I846
tp3743
a(I2
I846
tp3744
a(I2
I846
tp3745
a(I2
I847
tp3746
a(I2
I846
tp3747
a(I2
I846
tp3748
a(I2
I846
tp3749
a(I2
I846
tp3750
a(I2
I847
tp3751
a(I2
I846
tp3752
a(I2
I846
tp3753
a(I2
I846
tp3754
a(I2
I846
tp3755
a(I2
I846
tp3756
a(I2
I846
tp3757
a(I2
I846
tp3758
a(I3
I846
tp3759
a(I2
I846
tp3760
a(I2
I846
tp3761
a(I2
I846
tp3762
a(I2
I845
tp3763
a(I1
I846
tp3764
a(I2
I846
tp3765
a(I2
I846
tp3766
a(I2
I846
tp3767
a(I2
I846
tp3768
a(I2
I846
tp3769
a(I2
I846
tp3770
a(I2
I846
tp3771
a(I2
I846
tp3772
a(I2
I846
tp3773
a(I2
I846
tp3774
a(I2
I846
tp3775
a(I2
I846
tp3776
a(I2
I846
tp3777
a(I2
I847
tp3778
a(I2
I846
tp3779
a(I2
I846
tp3780
a(I2
I846
tp3781
a(I2
I846
tp3782
a(I2
I846
tp3783
a(I2
I846
tp3784
a(I1
I846
tp3785
a(I2
I846
tp3786
a(I2
I846
tp3787
a(I2
I846
tp3788
a(I2
I847
tp3789
a(I2
I846
tp3790
a(I2
I846
tp3791
a(I2
I846
tp3792
a(I2
I846
tp3793
a(I2
I847
tp3794
a(I2
I846
tp3795
a(I2
I846
tp3796
a(I2
I846
tp3797
a(I2
I846
tp3798
a(I2
I846
tp3799
a(I2
I846
tp3800
a(I2
I846
tp3801
a(I2
I846
tp3802
a(I2
I846
tp3803
a(I2
I846
tp3804
a(I2
I846
tp3805
a(I2
I846
tp3806
a(I2
I846
tp3807
a(I2
I846
tp3808
a(I2
I846
tp3809
a(I2
I846
tp3810
a(I2
I846
tp3811
a(I3
I845
tp3812
a(I2
I847
tp3813
a(I2
I846
tp3814
a(I2
I846
tp3815
a(I2
I846
tp3816
a(I2
I846
tp3817
a(I2
I846
tp3818
a(I2
I846
tp3819
a(I2
I846
tp3820
a(I2
I846
tp3821
a(I2
I846
tp3822
a(I2
I846
tp3823
a(I2
I846
tp3824
a(I2
I846
tp3825
a(I2
I846
tp3826
a(I2
I846
tp3827
a(I2
I846
tp3828
a(I2
I846
tp3829
a(I2
I846
tp3830
a(I2
I846
tp3831
a(I2
I846
tp3832
a(I2
I846
tp3833
a(I2
I846
tp3834
a(I2
I846
tp3835
a(I2
I846
tp3836
a(I2
I846
tp3837
a(I2
I846
tp3838
a(I2
I846
tp3839
a(I2
I846
tp3840
a(I2
I846
tp3841
a(I2
I846
tp3842
a(I2
I846
tp3843
a(I2
I846
tp3844
a(I2
I846
tp3845
a(I2
I847
tp3846
a(I2
I846
tp3847
a(I2
I846
tp3848
a(I2
I846
tp3849
a(I2
I846
tp3850
a(I2
I846
tp3851
a(I2
I846
tp3852
a(I2
I846
tp3853
a(I2
I846
tp3854
a(I2
I846
tp3855
a(I2
I846
tp3856
a(I2
I846
tp3857
a(I2
I846
tp3858
a(I2
I846
tp3859
a(I2
I846
tp3860
a(I2
I846
tp3861
a(I2
I846
tp3862
a(I2
I846
tp3863
a(I2
I846
tp3864
a(I2
I846
tp3865
a(I2
I846
tp3866
a(I2
I846
tp3867
a(I2
I847
tp3868
a(I2
I845
tp3869
a(I2
I846
tp3870
a(I2
I846
tp3871
a(I2
I846
tp3872
a(I2
I846
tp3873
a(I2
I845
tp3874
a(I2
I846
tp3875
a(I2
I846
tp3876
a(I3
I846
tp3877
a(I2
I846
tp3878
a(I2
I846
tp3879
a(I2
I846
tp3880
a(I2
I846
tp3881
a(I2
I846
tp3882
a(I2
I846
tp3883
a(I2
I847
tp3884
a(I2
I846
tp3885
a(I2
I846
tp3886
a(I2
I846
tp3887
a(I2
I846
tp3888
a(I2
I847
tp3889
a(I2
I846
tp3890
a(I2
I846
tp3891
a(I2
I846
tp3892
a(I2
I846
tp3893
a(I2
I846
tp3894
a(I2
I846
tp3895
a(I2
I846
tp3896
a(I2
I846
tp3897
a(I2
I846
tp3898
a(I2
I846
tp3899
a(I2
I846
tp3900
a(I2
I846
tp3901
a(I2
I846
tp3902
a(I2
I846
tp3903
a(I2
I846
tp3904
a(I2
I846
tp3905
a(I2
I846
tp3906
a(I2
I846
tp3907
a(I2
I846
tp3908
a(I2
I846
tp3909
a(I2
I846
tp3910
a(I2
I846
tp3911
a(I2
I846
tp3912
a(I2
I846
tp3913
a(I2
I847
tp3914
a(I2
I846
tp3915
a(I2
I846
tp3916
a(I2
I846
tp3917
a(I2
I846
tp3918
a(I2
I846
tp3919
a(I2
I846
tp3920
a(I2
I846
tp3921
a(I2
I846
tp3922
a(I2
I846
tp3923
a(I2
I846
tp3924
a(I2
I846
tp3925
a(I2
I846
tp3926
a(I2
I846
tp3927
a(I1
I847
tp3928
a(I2
I846
tp3929
a(I2
I846
tp3930
a(I2
I846
tp3931
a(I2
I846
tp3932
a(I2
I846
tp3933
a(I2
I847
tp3934
a(I2
I846
tp3935
a(I2
I846
tp3936
a(I2
I846
tp3937
a(I2
I846
tp3938
a(I2
I846
tp3939
a(I2
I846
tp3940
a(I2
I846
tp3941
a(I2
I846
tp3942
a(I2
I846
tp3943
a(I2
I846
tp3944
a(I3
I846
tp3945
a(I2
I847
tp3946
a(I2
I846
tp3947
a(I2
I846
tp3948
a(I2
I846
tp3949
a(I2
I846
tp3950
a(I2
I846
tp3951
a(I2
I846
tp3952
a(I2
I846
tp3953
a(I2
I846
tp3954
a(I2
I846
tp3955
a(I2
I846
tp3956
a(I2
I846
tp3957
a(I2
I846
tp3958
a(I2
I846
tp3959
a(I2
I846
tp3960
a(I2
I846
tp3961
a(I2
I846
tp3962
a(I2
I846
tp3963
a(I2
I846
tp3964
a(I2
I846
tp3965
a(I2
I846
tp3966
a(I2
I846
tp3967
a(I2
I846
tp3968
a(I2
I846
tp3969
a(I2
I846
tp3970
a(I2
I846
tp3971
a(I2
I846
tp3972
a(I2
I846
tp3973
a(I2
I846
tp3974
a(I2
I846
tp3975
a(I2
I846
tp3976
a(I2
I846
tp3977
a(I2
I846
tp3978
a(I2
I846
tp3979
a(I2
I846
tp3980
a(I2
I846
tp3981
a(I2
I846
tp3982
a(I2
I846
tp3983
a(I2
I846
tp3984
a(I2
I846
tp3985
a(I2
I846
tp3986
a(I2
I846
tp3987
a(I2
I846
tp3988
a(I2
I846
tp3989
a(I2
I846
tp3990
a(I2
I846
tp3991
a(I2
I846
tp3992
a(I2
I846
tp3993
a(I2
I846
tp3994
a(I2
I846
tp3995
a(I2
I846
tp3996
a(I2
I846
tp3997
a(I2
I846
tp3998
a(I2
I846
tp3999
a(I2
I846
tp4000
a(I2
I846
tp4001
a(I2
I846
tp4002
a(I2
I846
tp4003
a(I2
I846
tp4004
a(I2
I846
tp4005
a(I2
I847
tp4006
a(I2
I846
tp4007
a(I2
I846
tp4008
a(I2
I846
tp4009
asS'DOWN-LEFT'
p4010
(lp4011
(I2
I846
tp4012
a(I2
I846
tp4013
a(I2
I846
tp4014
a(I2
I846
tp4015
a(I2
I846
tp4016
a(I2
I846
tp4017
a(I2
I846
tp4018
a(I2
I846
tp4019
a(I2
I846
tp4020
a(I2
I846
tp4021
a(I2
I846
tp4022
a(I2
I846
tp4023
a(I3
I846
tp4024
a(I2
I846
tp4025
a(I2
I846
tp4026
a(I2
I846
tp4027
a(I2
I846
tp4028
a(I2
I846
tp4029
a(I2
I846
tp4030
a(I2
I846
tp4031
a(I2
I846
tp4032
a(I2
I846
tp4033
a(I2
I846
tp4034
a(I2
I846
tp4035
a(I2
I846
tp4036
a(I2
I846
tp4037
a(I2
I846
tp4038
a(I2
I846
tp4039
a(I2
I846
tp4040
a(I2
I845
tp4041
a(I2
I846
tp4042
a(I2
I846
tp4043
a(I2
I847
tp4044
a(I2
I846
tp4045
a(I2
I846
tp4046
a(I2
I846
tp4047
a(I2
I846
tp4048
a(I2
I846
tp4049
a(I2
I846
tp4050
a(I2
I846
tp4051
a(I2
I846
tp4052
a(I2
I846
tp4053
a(I2
I846
tp4054
a(I2
I846
tp4055
a(I2
I846
tp4056
a(I2
I846
tp4057
a(I2
I846
tp4058
a(I2
I846
tp4059
a(I2
I846
tp4060
a(I2
I846
tp4061
a(I2
I846
tp4062
a(I2
I846
tp4063
a(I2
I846
tp4064
a(I2
I846
tp4065
a(I2
I846
tp4066
a(I2
I846
tp4067
a(I2
I846
tp4068
a(I3
I846
tp4069
a(I2
I846
tp4070
a(I2
I846
tp4071
a(I2
I846
tp4072
a(I2
I845
tp4073
a(I3
I846
tp4074
a(I2
I846
tp4075
a(I2
I847
tp4076
a(I2
I846
tp4077
a(I2
I845
tp4078
a(I2
I846
tp4079
a(I2
I846
tp4080
a(I2
I846
tp4081
a(I2
I846
tp4082
a(I2
I846
tp4083
a(I2
I846
tp4084
a(I2
I846
tp4085
a(I2
I846
tp4086
a(I1
I846
tp4087
a(I2
I846
tp4088
a(I2
I846
tp4089
a(I2
I846
tp4090
a(I2
I846
tp4091
a(I2
I846
tp4092
a(I2
I846
tp4093
a(I2
I846
tp4094
a(I2
I846
tp4095
a(I2
I846
tp4096
a(I2
I846
tp4097
a(I2
I846
tp4098
a(I2
I846
tp4099
a(I2
I846
tp4100
a(I1
I846
tp4101
a(I2
I846
tp4102
a(I2
I846
tp4103
a(I2
I846
tp4104
a(I2
I846
tp4105
a(I2
I846
tp4106
a(I2
I846
tp4107
a(I2
I846
tp4108
a(I2
I846
tp4109
a(I2
I846
tp4110
a(I2
I846
tp4111
a(I2
I847
tp4112
a(I2
I846
tp4113
a(I2
I846
tp4114
a(I2
I846
tp4115
a(I2
I846
tp4116
a(I2
I846
tp4117
a(I2
I846
tp4118
a(I2
I846
tp4119
a(I2
I846
tp4120
a(I2
I846
tp4121
a(I2
I846
tp4122
a(I2
I846
tp4123
a(I2
I846
tp4124
a(I2
I846
tp4125
a(I2
I846
tp4126
a(I2
I846
tp4127
a(I2
I846
tp4128
a(I2
I846
tp4129
a(I2
I846
tp4130
a(I2
I846
tp4131
a(I2
I846
tp4132
a(I2
I846
tp4133
a(I2
I846
tp4134
a(I2
I846
tp4135
a(I2
I846
tp4136
a(I2
I846
tp4137
a(I2
I846
tp4138
a(I1
I846
tp4139
a(I2
I847
tp4140
a(I2
I846
tp4141
a(I2
I846
tp4142
a(I2
I846
tp4143
a(I2
I846
tp4144
a(I2
I846
tp4145
a(I2
I846
tp4146
a(I2
I846
tp4147
a(I2
I846
tp4148
a(I2
I846
tp4149
a(I2
I846
tp4150
a(I2
I846
tp4151
a(I2
I846
tp4152
a(I2
I846
tp4153
a(I2
I846
tp4154
a(I2
I846
tp4155
a(I2
I846
tp4156
a(I2
I846
tp4157
a(I2
I846
tp4158
a(I2
I846
tp4159
a(I2
I846
tp4160
a(I2
I846
tp4161
a(I2
I846
tp4162
a(I2
I846
tp4163
a(I2
I846
tp4164
a(I2
I846
tp4165
a(I2
I846
tp4166
a(I2
I846
tp4167
a(I2
I846
tp4168
a(I2
I846
tp4169
a(I2
I846
tp4170
a(I2
I845
tp4171
a(I2
I846
tp4172
a(I2
I846
tp4173
a(I2
I846
tp4174
a(I1
I846
tp4175
a(I2
I846
tp4176
a(I2
I846
tp4177
a(I2
I846
tp4178
a(I2
I846
tp4179
a(I2
I847
tp4180
a(I2
I846
tp4181
a(I2
I845
tp4182
a(I2
I846
tp4183
a(I2
I846
tp4184
a(I2
I846
tp4185
a(I2
I846
tp4186
a(I2
I846
tp4187
a(I2
I846
tp4188
a(I2
I846
tp4189
a(I2
I846
tp4190
a(I2
I846
tp4191
a(I2
I846
tp4192
a(I2
I846
tp4193
a(I2
I847
tp4194
a(I2
I846
tp4195
a(I2
I846
tp4196
a(I2
I846
tp4197
a(I2
I846
tp4198
a(I2
I846
tp4199
a(I2
I846
tp4200
a(I2
I846
tp4201
a(I2
I846
tp4202
a(I2
I846
tp4203
a(I2
I846
tp4204
a(I2
I847
tp4205
a(I2
I846
tp4206
a(I2
I846
tp4207
a(I2
I846
tp4208
a(I2
I846
tp4209
a(I2
I846
tp4210
a(I2
I846
tp4211
a(I2
I846
tp4212
a(I2
I846
tp4213
a(I2
I845
tp4214
a(I2
I847
tp4215
a(I2
I847
tp4216
a(I2
I846
tp4217
a(I2
I846
tp4218
a(I2
I846
tp4219
a(I2
I846
tp4220
a(I2
I846
tp4221
a(I2
I846
tp4222
a(I2
I846
tp4223
a(I2
I846
tp4224
a(I2
I846
tp4225
a(I2
I846
tp4226
a(I2
I846
tp4227
a(I2
I846
tp4228
a(I2
I846
tp4229
a(I2
I846
tp4230
a(I2
I846
tp4231
a(I2
I846
tp4232
a(I2
I846
tp4233
a(I2
I846
tp4234
a(I2
I846
tp4235
a(I2
I846
tp4236
a(I2
I846
tp4237
a(I2
I846
tp4238
a(I2
I847
tp4239
a(I2
I846
tp4240
a(I2
I846
tp4241
a(I2
I846
tp4242
a(I2
I846
tp4243
a(I2
I846
tp4244
a(I2
I846
tp4245
a(I2
I847
tp4246
a(I2
I846
tp4247
a(I2
I846
tp4248
a(I3
I846
tp4249
a(I2
I846
tp4250
a(I2
I846
tp4251
a(I3
I846
tp4252
a(I2
I846
tp4253
a(I2
I846
tp4254
a(I2
I846
tp4255
a(I1
I846
tp4256
a(I2
I846
tp4257
a(I2
I846
tp4258
a(I2
I846
tp4259
a(I2
I846
tp4260
a(I2
I847
tp4261
a(I2
I846
tp4262
a(I2
I846
tp4263
a(I2
I845
tp4264
a(I2
I846
tp4265
a(I2
I846
tp4266
a(I2
I847
tp4267
a(I2
I846
tp4268
a(I2
I846
tp4269
a(I2
I846
tp4270
a(I2
I846
tp4271
a(I2
I846
tp4272
a(I2
I846
tp4273
a(I2
I846
tp4274
a(I2
I846
tp4275
a(I2
I846
tp4276
a(I2
I846
tp4277
a(I2
I846
tp4278
a(I2
I846
tp4279
a(I2
I846
tp4280
a(I2
I846
tp4281
a(I2
I846
tp4282
a(I2
I846
tp4283
a(I2
I846
tp4284
a(I2
I846
tp4285
a(I2
I846
tp4286
a(I2
I846
tp4287
a(I1
I846
tp4288
a(I2
I846
tp4289
a(I2
I846
tp4290
a(I2
I846
tp4291
a(I2
I847
tp4292
a(I2
I846
tp4293
a(I2
I846
tp4294
a(I2
I846
tp4295
a(I2
I846
tp4296
a(I2
I846
tp4297
a(I2
I847
tp4298
a(I2
I846
tp4299
a(I1
I846
tp4300
a(I2
I846
tp4301
a(I2
I846
tp4302
a(I2
I846
tp4303
a(I2
I846
tp4304
a(I2
I846
tp4305
a(I2
I846
tp4306
a(I2
I846
tp4307
a(I2
I846
tp4308
a(I2
I847
tp4309
a(I2
I846
tp4310
a(I2
I846
tp4311
a(I2
I846
tp4312
a(I2
I846
tp4313
a(I2
I846
tp4314
a(I2
I846
tp4315
a(I2
I846
tp4316
a(I2
I846
tp4317
a(I2
I846
tp4318
a(I1
I846
tp4319
a(I2
I846
tp4320
a(I2
I845
tp4321
a(I2
I846
tp4322
a(I2
I847
tp4323
a(I2
I846
tp4324
a(I2
I846
tp4325
a(I2
I846
tp4326
a(I2
I846
tp4327
a(I2
I846
tp4328
a(I3
I846
tp4329
a(I2
I846
tp4330
a(I2
I846
tp4331
a(I2
I846
tp4332
a(I2
I846
tp4333
a(I2
I846
tp4334
a(I2
I846
tp4335
a(I2
I846
tp4336
a(I2
I846
tp4337
a(I2
I846
tp4338
a(I2
I846
tp4339
a(I2
I846
tp4340
a(I2
I846
tp4341
a(I2
I846
tp4342
a(I2
I846
tp4343
a(I2
I847
tp4344
a(I2
I847
tp4345
a(I2
I846
tp4346
a(I2
I846
tp4347
a(I2
I846
tp4348
a(I2
I846
tp4349
a(I2
I846
tp4350
a(I2
I846
tp4351
a(I2
I846
tp4352
a(I2
I846
tp4353
a(I2
I846
tp4354
a(I2
I846
tp4355
a(I2
I846
tp4356
a(I2
I846
tp4357
a(I3
I846
tp4358
a(I2
I846
tp4359
a(I2
I846
tp4360
a(I2
I846
tp4361
a(I2
I846
tp4362
a(I2
I846
tp4363
a(I2
I846
tp4364
a(I2
I846
tp4365
a(I2
I846
tp4366
a(I2
I846
tp4367
a(I2
I846
tp4368
a(I3
I846
tp4369
a(I2
I846
tp4370
a(I2
I847
tp4371
a(I2
I846
tp4372
a(I2
I846
tp4373
a(I2
I846
tp4374
a(I2
I846
tp4375
a(I2
I846
tp4376
a(I3
I846
tp4377
a(I2
I847
tp4378
a(I2
I846
tp4379
a(I2
I846
tp4380
a(I2
I847
tp4381
a(I2
I846
tp4382
a(I2
I846
tp4383
a(I2
I846
tp4384
a(I2
I846
tp4385
a(I2
I846
tp4386
a(I2
I846
tp4387
a(I2
I846
tp4388
a(I2
I846
tp4389
a(I2
I846
tp4390
a(I2
I846
tp4391
a(I2
I846
tp4392
a(I2
I846
tp4393
a(I2
I846
tp4394
a(I2
I846
tp4395
a(I2
I846
tp4396
a(I2
I845
tp4397
a(I2
I847
tp4398
a(I2
I846
tp4399
a(I2
I847
tp4400
a(I2
I846
tp4401
a(I2
I846
tp4402
a(I2
I846
tp4403
a(I2
I846
tp4404
a(I2
I846
tp4405
a(I2
I846
tp4406
a(I2
I846
tp4407
a(I2
I846
tp4408
a(I2
I846
tp4409
a(I2
I847
tp4410
a(I2
I777
tp4411
a(I2
I846
tp4412
a(I3
I846
tp4413
a(I2
I846
tp4414
a(I2
I846
tp4415
a(I2
I846
tp4416
a(I2
I846
tp4417
a(I2
I846
tp4418
a(I2
I846
tp4419
a(I2
I846
tp4420
a(I2
I846
tp4421
a(I2
I847
tp4422
a(I2
I846
tp4423
a(I2
I846
tp4424
a(I2
I846
tp4425
a(I2
I846
tp4426
a(I2
I846
tp4427
a(I2
I846
tp4428
a(I2
I846
tp4429
a(I3
I846
tp4430
a(I2
I846
tp4431
a(I2
I846
tp4432
a(I2
I841
tp4433
a(I2
I846
tp4434
a(I2
I845
tp4435
a(I2
I846
tp4436
a(I2
I846
tp4437
a(I2
I846
tp4438
a(I2
I846
tp4439
a(I2
I846
tp4440
a(I2
I846
tp4441
a(I2
I846
tp4442
a(I2
I846
tp4443
a(I2
I846
tp4444
a(I2
I846
tp4445
a(I2
I846
tp4446
a(I2
I847
tp4447
a(I2
I846
tp4448
a(I2
I846
tp4449
a(I2
I846
tp4450
a(I2
I846
tp4451
a(I2
I846
tp4452
a(I2
I846
tp4453
a(I2
I846
tp4454
a(I2
I847
tp4455
a(I2
I846
tp4456
a(I2
I846
tp4457
a(I2
I846
tp4458
a(I2
I846
tp4459
a(I2
I845
tp4460
a(I2
I846
tp4461
a(I2
I846
tp4462
a(I2
I847
tp4463
a(I2
I846
tp4464
a(I2
I846
tp4465
a(I2
I846
tp4466
a(I2
I846
tp4467
a(I2
I846
tp4468
a(I2
I847
tp4469
a(I2
I846
tp4470
a(I2
I846
tp4471
a(I2
I846
tp4472
a(I2
I846
tp4473
a(I2
I846
tp4474
a(I2
I847
tp4475
a(I2
I846
tp4476
a(I2
I846
tp4477
a(I2
I846
tp4478
a(I2
I846
tp4479
a(I2
I846
tp4480
a(I2
I846
tp4481
a(I2
I846
tp4482
a(I2
I846
tp4483
a(I2
I846
tp4484
a(I2
I846
tp4485
a(I2
I846
tp4486
a(I2
I846
tp4487
a(I2
I846
tp4488
a(I2
I846
tp4489
a(I2
I846
tp4490
a(I2
I847
tp4491
a(I2
I846
tp4492
a(I2
I846
tp4493
a(I2
I846
tp4494
a(I2
I846
tp4495
a(I2
I846
tp4496
a(I2
I846
tp4497
a(I2
I846
tp4498
a(I2
I846
tp4499
a(I2
I846
tp4500
a(I2
I847
tp4501
a(I2
I846
tp4502
a(I2
I846
tp4503
a(I2
I846
tp4504
a(I2
I846
tp4505
a(I2
I846
tp4506
a(I2
I846
tp4507
a(I2
I846
tp4508
a(I2
I846
tp4509
a(I2
I846
tp4510
a(I2
I846
tp4511
a(I2
I846
tp4512
a(I2
I846
tp4513
a(I2
I846
tp4514
a(I2
I846
tp4515
a(I2
I847
tp4516
a(I2
I846
tp4517
a(I2
I846
tp4518
a(I3
I846
tp4519
a(I2
I846
tp4520
a(I2
I847
tp4521
a(I2
I846
tp4522
a(I2
I846
tp4523
a(I2
I846
tp4524
a(I2
I846
tp4525
a(I2
I846
tp4526
a(I2
I846
tp4527
a(I2
I846
tp4528
a(I2
I846
tp4529
a(I2
I846
tp4530
a(I2
I846
tp4531
a(I2
I846
tp4532
a(I2
I846
tp4533
a(I2
I846
tp4534
a(I2
I846
tp4535
a(I2
I846
tp4536
a(I2
I846
tp4537
a(I2
I846
tp4538
a(I2
I846
tp4539
a(I2
I846
tp4540
a(I2
I846
tp4541
a(I2
I846
tp4542
a(I2
I846
tp4543
a(I2
I846
tp4544
a(I2
I846
tp4545
a(I2
I846
tp4546
a(I2
I847
tp4547
a(I2
I846
tp4548
a(I2
I846
tp4549
a(I2
I846
tp4550
a(I2
I846
tp4551
a(I2
I847
tp4552
a(I2
I846
tp4553
a(I2
I846
tp4554
a(I2
I846
tp4555
a(I2
I846
tp4556
a(I2
I846
tp4557
a(I2
I846
tp4558
a(I2
I846
tp4559
a(I2
I846
tp4560
a(I2
I846
tp4561
a(I2
I846
tp4562
a(I2
I846
tp4563
a(I2
I846
tp4564
a(I2
I846
tp4565
a(I2
I846
tp4566
a(I2
I846
tp4567
a(I2
I846
tp4568
a(I2
I846
tp4569
a(I2
I846
tp4570
a(I2
I846
tp4571
a(I1
I846
tp4572
a(I2
I847
tp4573
a(I2
I846
tp4574
a(I2
I846
tp4575
a(I2
I846
tp4576
a(I2
I846
tp4577
a(I2
I846
tp4578
a(I2
I846
tp4579
a(I2
I846
tp4580
a(I2
I847
tp4581
a(I2
I846
tp4582
a(I2
I846
tp4583
a(I2
I846
tp4584
a(I2
I846
tp4585
a(I2
I846
tp4586
a(I2
I846
tp4587
a(I2
I847
tp4588
a(I2
I846
tp4589
a(I2
I846
tp4590
a(I2
I846
tp4591
a(I2
I846
tp4592
a(I3
I846
tp4593
a(I2
I846
tp4594
a(I2
I846
tp4595
a(I2
I846
tp4596
a(I2
I846
tp4597
a(I2
I846
tp4598
a(I2
I846
tp4599
a(I2
I847
tp4600
a(I2
I846
tp4601
a(I2
I846
tp4602
a(I2
I846
tp4603
a(I2
I846
tp4604
a(I2
I847
tp4605
a(I2
I846
tp4606
a(I2
I846
tp4607
a(I2
I846
tp4608
a(I2
I846
tp4609
a(I2
I846
tp4610
a(I2
I846
tp4611
a(I2
I846
tp4612
a(I2
I846
tp4613
a(I2
I846
tp4614
a(I2
I846
tp4615
a(I2
I846
tp4616
a(I2
I845
tp4617
a(I2
I846
tp4618
a(I2
I845
tp4619
a(I3
I846
tp4620
a(I2
I846
tp4621
a(I2
I846
tp4622
a(I2
I846
tp4623
a(I2
I846
tp4624
a(I2
I846
tp4625
a(I2
I846
tp4626
a(I2
I846
tp4627
a(I2
I846
tp4628
a(I2
I846
tp4629
a(I2
I846
tp4630
a(I2
I846
tp4631
a(I2
I846
tp4632
a(I2
I846
tp4633
a(I2
I846
tp4634
a(I2
I846
tp4635
a(I2
I846
tp4636
a(I2
I846
tp4637
a(I2
I846
tp4638
a(I2
I846
tp4639
a(I2
I846
tp4640
a(I2
I845
tp4641
a(I2
I846
tp4642
a(I2
I846
tp4643
a(I2
I846
tp4644
a(I2
I846
tp4645
a(I2
I846
tp4646
a(I2
I847
tp4647
a(I2
I846
tp4648
a(I2
I846
tp4649
a(I2
I846
tp4650
a(I2
I846
tp4651
a(I2
I846
tp4652
a(I2
I846
tp4653
a(I2
I846
tp4654
a(I2
I846
tp4655
a(I2
I846
tp4656
a(I2
I846
tp4657
a(I2
I846
tp4658
a(I2
I846
tp4659
a(I2
I846
tp4660
a(I2
I846
tp4661
a(I2
I846
tp4662
a(I2
I846
tp4663
a(I2
I846
tp4664
a(I2
I847
tp4665
a(I2
I846
tp4666
a(I2
I846
tp4667
a(I2
I846
tp4668
a(I2
I846
tp4669
a(I2
I846
tp4670
a(I2
I847
tp4671
a(I2
I846
tp4672
a(I2
I846
tp4673
a(I2
I846
tp4674
a(I2
I846
tp4675
a(I2
I846
tp4676
a(I2
I846
tp4677
a(I2
I846
tp4678
a(I2
I846
tp4679
a(I2
I846
tp4680
a(I2
I846
tp4681
a(I2
I846
tp4682
a(I3
I846
tp4683
a(I2
I846
tp4684
a(I2
I846
tp4685
a(I2
I846
tp4686
a(I2
I846
tp4687
a(I2
I846
tp4688
a(I2
I846
tp4689
a(I2
I846
tp4690
a(I2
I846
tp4691
a(I2
I846
tp4692
a(I2
I847
tp4693
a(I2
I846
tp4694
a(I2
I846
tp4695
a(I2
I846
tp4696
a(I2
I846
tp4697
a(I2
I847
tp4698
a(I2
I846
tp4699
a(I2
I846
tp4700
a(I2
I846
tp4701
a(I2
I846
tp4702
a(I2
I846
tp4703
a(I2
I846
tp4704
a(I2
I846
tp4705
a(I2
I846
tp4706
a(I2
I846
tp4707
a(I2
I846
tp4708
a(I2
I846
tp4709
a(I2
I845
tp4710
a(I2
I846
tp4711
a(I2
I846
tp4712
a(I2
I846
tp4713
a(I2
I846
tp4714
a(I2
I846
tp4715
a(I2
I846
tp4716
a(I2
I846
tp4717
a(I2
I846
tp4718
a(I2
I846
tp4719
a(I2
I846
tp4720
a(I2
I846
tp4721
a(I2
I846
tp4722
a(I2
I846
tp4723
a(I2
I846
tp4724
a(I2
I846
tp4725
a(I3
I846
tp4726
a(I2
I846
tp4727
a(I2
I846
tp4728
a(I2
I846
tp4729
a(I2
I846
tp4730
a(I2
I846
tp4731
a(I2
I846
tp4732
a(I2
I846
tp4733
a(I2
I846
tp4734
a(I2
I846
tp4735
a(I2
I846
tp4736
a(I2
I846
tp4737
a(I2
I846
tp4738
a(I2
I846
tp4739
a(I2
I846
tp4740
a(I2
I846
tp4741
a(I2
I846
tp4742
a(I3
I846
tp4743
a(I2
I847
tp4744
a(I2
I847
tp4745
a(I2
I846
tp4746
a(I2
I846
tp4747
a(I2
I846
tp4748
a(I2
I846
tp4749
a(I1
I846
tp4750
a(I2
I846
tp4751
a(I2
I846
tp4752
a(I2
I846
tp4753
a(I2
I847
tp4754
a(I2
I846
tp4755
a(I2
I846
tp4756
a(I2
I846
tp4757
a(I2
I846
tp4758
a(I2
I846
tp4759
a(I2
I846
tp4760
a(I2
I847
tp4761
a(I2
I846
tp4762
a(I2
I846
tp4763
a(I2
I846
tp4764
a(I2
I846
tp4765
a(I2
I846
tp4766
a(I2
I846
tp4767
a(I2
I846
tp4768
a(I2
I846
tp4769
a(I2
I846
tp4770
a(I2
I846
tp4771
a(I2
I846
tp4772
a(I2
I846
tp4773
a(I2
I846
tp4774
a(I2
I846
tp4775
a(I2
I846
tp4776
a(I2
I846
tp4777
a(I2
I846
tp4778
a(I1
I846
tp4779
a(I2
I846
tp4780
a(I2
I846
tp4781
a(I2
I846
tp4782
a(I2
I846
tp4783
a(I2
I846
tp4784
a(I2
I846
tp4785
a(I2
I846
tp4786
a(I2
I846
tp4787
a(I2
I846
tp4788
a(I2
I846
tp4789
a(I2
I846
tp4790
a(I2
I846
tp4791
a(I2
I846
tp4792
a(I2
I846
tp4793
a(I2
I846
tp4794
a(I2
I846
tp4795
a(I2
I846
tp4796
a(I2
I846
tp4797
a(I2
I846
tp4798
a(I2
I847
tp4799
a(I2
I846
tp4800
a(I2
I846
tp4801
a(I2
I846
tp4802
a(I3
I846
tp4803
a(I2
I846
tp4804
a(I2
I846
tp4805
a(I2
I846
tp4806
a(I2
I846
tp4807
a(I2
I846
tp4808
a(I2
I846
tp4809
a(I2
I846
tp4810
a(I2
I846
tp4811
a(I2
I846
tp4812
a(I2
I846
tp4813
a(I2
I846
tp4814
a(I2
I539
tp4815
a(I2
I846
tp4816
a(I2
I846
tp4817
a(I2
I846
tp4818
a(I2
I846
tp4819
a(I2
I783
tp4820
a(I2
I846
tp4821
a(I2
I846
tp4822
a(I2
I846
tp4823
a(I2
I846
tp4824
a(I2
I846
tp4825
a(I2
I846
tp4826
a(I3
I846
tp4827
a(I2
I846
tp4828
a(I2
I846
tp4829
a(I2
I846
tp4830
a(I2
I846
tp4831
a(I2
I845
tp4832
a(I2
I846
tp4833
a(I2
I847
tp4834
a(I2
I846
tp4835
a(I2
I846
tp4836
a(I2
I846
tp4837
a(I2
I846
tp4838
a(I2
I846
tp4839
a(I2
I846
tp4840
a(I2
I846
tp4841
a(I2
I846
tp4842
a(I2
I846
tp4843
a(I1
I846
tp4844
a(I2
I847
tp4845
a(I2
I846
tp4846
a(I2
I846
tp4847
a(I2
I846
tp4848
a(I2
I846
tp4849
a(I2
I846
tp4850
a(I2
I846
tp4851
a(I2
I846
tp4852
a(I2
I846
tp4853
a(I2
I846
tp4854
a(I2
I846
tp4855
a(I2
I846
tp4856
a(I2
I846
tp4857
a(I2
I846
tp4858
a(I2
I846
tp4859
a(I2
I846
tp4860
a(I2
I846
tp4861
a(I2
I846
tp4862
a(I2
I845
tp4863
a(I2
I846
tp4864
a(I2
I846
tp4865
a(I2
I846
tp4866
a(I2
I846
tp4867
a(I2
I846
tp4868
a(I2
I846
tp4869
a(I2
I847
tp4870
a(I2
I846
tp4871
a(I2
I847
tp4872
a(I2
I846
tp4873
a(I2
I846
tp4874
a(I2
I846
tp4875
a(I2
I846
tp4876
a(I2
I846
tp4877
a(I2
I846
tp4878
a(I2
I846
tp4879
a(I2
I846
tp4880
a(I2
I846
tp4881
a(I2
I846
tp4882
a(I2
I847
tp4883
a(I2
I846
tp4884
a(I2
I846
tp4885
a(I2
I846
tp4886
a(I2
I846
tp4887
a(I2
I846
tp4888
a(I2
I846
tp4889
a(I3
I846
tp4890
a(I2
I846
tp4891
a(I3
I846
tp4892
a(I2
I846
tp4893
a(I2
I846
tp4894
a(I2
I846
tp4895
a(I2
I845
tp4896
a(I2
I846
tp4897
a(I2
I846
tp4898
a(I2
I846
tp4899
a(I2
I847
tp4900
a(I2
I846
tp4901
a(I2
I846
tp4902
a(I2
I846
tp4903
a(I2
I846
tp4904
a(I2
I846
tp4905
a(I2
I846
tp4906
a(I2
I846
tp4907
a(I2
I846
tp4908
a(I2
I846
tp4909
a(I2
I846
tp4910
a(I2
I847
tp4911
a(I2
I846
tp4912
a(I2
I846
tp4913
a(I2
I846
tp4914
a(I2
I846
tp4915
a(I2
I847
tp4916
a(I2
I846
tp4917
a(I2
I846
tp4918
a(I2
I846
tp4919
a(I2
I846
tp4920
a(I2
I846
tp4921
a(I2
I846
tp4922
a(I2
I846
tp4923
a(I2
I846
tp4924
a(I2
I846
tp4925
a(I2
I846
tp4926
a(I2
I846
tp4927
a(I2
I846
tp4928
a(I2
I846
tp4929
a(I2
I846
tp4930
a(I2
I846
tp4931
a(I2
I846
tp4932
a(I2
I846
tp4933
a(I2
I846
tp4934
a(I2
I846
tp4935
a(I2
I846
tp4936
a(I2
I846
tp4937
a(I2
I846
tp4938
a(I2
I846
tp4939
a(I2
I846
tp4940
a(I2
I846
tp4941
a(I2
I846
tp4942
a(I2
I846
tp4943
a(I2
I846
tp4944
a(I2
I846
tp4945
a(I2
I846
tp4946
a(I2
I846
tp4947
a(I2
I846
tp4948
a(I2
I847
tp4949
a(I2
I846
tp4950
a(I2
I846
tp4951
a(I2
I846
tp4952
a(I3
I846
tp4953
a(I2
I846
tp4954
a(I3
I818
tp4955
a(I2
I846
tp4956
a(I2
I846
tp4957
a(I2
I846
tp4958
a(I2
I847
tp4959
a(I2
I846
tp4960
a(I2
I846
tp4961
a(I2
I846
tp4962
a(I2
I846
tp4963
a(I2
I846
tp4964
a(I2
I846
tp4965
a(I3
I847
tp4966
a(I1
I846
tp4967
a(I2
I846
tp4968
a(I2
I846
tp4969
a(I2
I846
tp4970
a(I2
I846
tp4971
a(I2
I846
tp4972
a(I2
I846
tp4973
a(I2
I846
tp4974
a(I2
I846
tp4975
a(I2
I846
tp4976
a(I2
I846
tp4977
a(I2
I846
tp4978
a(I2
I846
tp4979
a(I2
I846
tp4980
a(I2
I846
tp4981
a(I2
I846
tp4982
a(I2
I846
tp4983
a(I2
I846
tp4984
a(I2
I846
tp4985
a(I2
I846
tp4986
a(I2
I846
tp4987
a(I2
I846
tp4988
a(I2
I845
tp4989
a(I2
I846
tp4990
a(I2
I846
tp4991
a(I2
I846
tp4992
a(I2
I846
tp4993
a(I2
I846
tp4994
a(I2
I846
tp4995
a(I2
I846
tp4996
a(I2
I846
tp4997
a(I2
I846
tp4998
a(I2
I846
tp4999
a(I2
I846
tp5000
a(I2
I847
tp5001
a(I2
I846
tp5002
a(I2
I846
tp5003
a(I2
I846
tp5004
a(I2
I846
tp5005
a(I2
I846
tp5006
a(I2
I846
tp5007
a(I2
I846
tp5008
a(I2
I846
tp5009
a(I2
I846
tp5010
a(I2
I846
tp5011
asS'UP-LEFT'
p5012
(lp5013
(I2
I846
tp5014
a(I2
I846
tp5015
a(I2
I846
tp5016
a(I2
I846
tp5017
a(I2
I846
tp5018
a(I2
I846
tp5019
a(I2
I846
tp5020
a(I2
I846
tp5021
a(I2
I846
tp5022
a(I2
I846
tp5023
a(I2
I846
tp5024
a(I3
I846
tp5025
a(I2
I846
tp5026
a(I2
I846
tp5027
a(I2
I846
tp5028
a(I2
I846
tp5029
a(I2
I846
tp5030
a(I2
I846
tp5031
a(I2
I846
tp5032
a(I2
I846
tp5033
a(I2
I846
tp5034
a(I2
I846
tp5035
a(I2
I846
tp5036
a(I2
I846
tp5037
a(I2
I846
tp5038
a(I2
I846
tp5039
a(I2
I846
tp5040
a(I2
I846
tp5041
a(I2
I846
tp5042
a(I2
I847
tp5043
a(I2
I846
tp5044
a(I2
I846
tp5045
a(I2
I846
tp5046
a(I2
I846
tp5047
a(I1
I846
tp5048
a(I2
I846
tp5049
a(I2
I846
tp5050
a(I2
I846
tp5051
a(I2
I847
tp5052
a(I2
I846
tp5053
a(I1
I846
tp5054
a(I2
I846
tp5055
a(I2
I846
tp5056
a(I2
I847
tp5057
a(I2
I846
tp5058
a(I2
I846
tp5059
a(I3
I846
tp5060
a(I2
I846
tp5061
a(I2
I846
tp5062
a(I2
I846
tp5063
a(I2
I846
tp5064
a(I2
I846
tp5065
a(I2
I846
tp5066
a(I2
I846
tp5067
a(I2
I846
tp5068
a(I2
I846
tp5069
a(I2
I846
tp5070
a(I2
I846
tp5071
a(I2
I846
tp5072
a(I2
I846
tp5073
a(I2
I846
tp5074
a(I2
I846
tp5075
a(I2
I846
tp5076
a(I2
I846
tp5077
a(I2
I846
tp5078
a(I2
I846
tp5079
a(I2
I846
tp5080
a(I2
I846
tp5081
a(I2
I846
tp5082
a(I2
I846
tp5083
a(I2
I846
tp5084
a(I2
I846
tp5085
a(I2
I846
tp5086
a(I2
I846
tp5087
a(I2
I846
tp5088
a(I2
I846
tp5089
a(I2
I846
tp5090
a(I2
I846
tp5091
a(I2
I846
tp5092
a(I2
I846
tp5093
a(I2
I846
tp5094
a(I1
I846
tp5095
a(I2
I846
tp5096
a(I2
I846
tp5097
a(I2
I846
tp5098
a(I2
I846
tp5099
a(I2
I846
tp5100
a(I2
I846
tp5101
a(I2
I846
tp5102
a(I2
I846
tp5103
a(I2
I846
tp5104
a(I2
I846
tp5105
a(I2
I846
tp5106
a(I2
I846
tp5107
a(I2
I845
tp5108
a(I2
I846
tp5109
a(I2
I846
tp5110
a(I2
I846
tp5111
a(I2
I846
tp5112
a(I2
I846
tp5113
a(I2
I846
tp5114
a(I2
I846
tp5115
a(I2
I846
tp5116
a(I2
I846
tp5117
a(I2
I846
tp5118
a(I2
I846
tp5119
a(I2
I846
tp5120
a(I2
I846
tp5121
a(I2
I847
tp5122
a(I2
I846
tp5123
a(I2
I846
tp5124
a(I2
I846
tp5125
a(I2
I846
tp5126
a(I2
I846
tp5127
a(I2
I846
tp5128
a(I2
I846
tp5129
a(I2
I846
tp5130
a(I2
I1
tp5131
a(I2
I846
tp5132
a(I2
I846
tp5133
a(I2
I846
tp5134
a(I2
I846
tp5135
a(I2
I846
tp5136
a(I3
I846
tp5137
a(I2
I846
tp5138
a(I2
I846
tp5139
a(I2
I846
tp5140
a(I2
I845
tp5141
a(I3
I846
tp5142
a(I2
I846
tp5143
a(I2
I846
tp5144
a(I2
I846
tp5145
a(I2
I846
tp5146
a(I2
I846
tp5147
a(I2
I846
tp5148
a(I2
I846
tp5149
a(I2
I847
tp5150
a(I2
I846
tp5151
a(I2
I846
tp5152
a(I2
I845
tp5153
a(I2
I846
tp5154
a(I2
I846
tp5155
a(I2
I846
tp5156
a(I2
I846
tp5157
a(I2
I846
tp5158
a(I2
I846
tp5159
a(I2
I846
tp5160
a(I2
I847
tp5161
a(I2
I846
tp5162
a(I2
I846
tp5163
a(I2
I846
tp5164
a(I2
I846
tp5165
a(I2
I846
tp5166
a(I2
I846
tp5167
a(I2
I846
tp5168
a(I2
I846
tp5169
a(I2
I846
tp5170
a(I2
I846
tp5171
a(I2
I846
tp5172
a(I2
I846
tp5173
a(I2
I846
tp5174
a(I2
I846
tp5175
a(I2
I845
tp5176
a(I2
I846
tp5177
a(I2
I846
tp5178
a(I2
I846
tp5179
a(I2
I846
tp5180
a(I2
I846
tp5181
a(I2
I846
tp5182
a(I2
I846
tp5183
a(I2
I846
tp5184
a(I2
I846
tp5185
a(I2
I846
tp5186
a(I2
I846
tp5187
a(I2
I846
tp5188
a(I2
I846
tp5189
a(I2
I846
tp5190
a(I2
I846
tp5191
a(I2
I845
tp5192
a(I2
I476
tp5193
a(I2
I846
tp5194
a(I2
I846
tp5195
a(I2
I846
tp5196
a(I2
I846
tp5197
a(I2
I846
tp5198
a(I2
I846
tp5199
a(I2
I846
tp5200
a(I2
I846
tp5201
a(I2
I846
tp5202
a(I2
I846
tp5203
a(I2
I846
tp5204
a(I2
I845
tp5205
a(I2
I846
tp5206
a(I1
I846
tp5207
a(I2
I846
tp5208
a(I2
I846
tp5209
a(I2
I847
tp5210
a(I2
I846
tp5211
a(I2
I846
tp5212
a(I2
I846
tp5213
a(I2
I846
tp5214
a(I1
I846
tp5215
a(I2
I846
tp5216
a(I2
I846
tp5217
a(I2
I846
tp5218
a(I2
I846
tp5219
a(I2
I846
tp5220
a(I2
I846
tp5221
a(I2
I846
tp5222
a(I2
I846
tp5223
a(I2
I847
tp5224
a(I2
I846
tp5225
a(I2
I806
tp5226
a(I2
I846
tp5227
a(I2
I846
tp5228
a(I2
I847
tp5229
a(I2
I846
tp5230
a(I2
I846
tp5231
a(I2
I846
tp5232
a(I2
I846
tp5233
a(I2
I846
tp5234
a(I2
I846
tp5235
a(I2
I846
tp5236
a(I2
I846
tp5237
a(I2
I846
tp5238
a(I2
I846
tp5239
a(I2
I846
tp5240
a(I2
I846
tp5241
a(I2
I846
tp5242
a(I2
I846
tp5243
a(I2
I846
tp5244
a(I2
I846
tp5245
a(I2
I846
tp5246
a(I2
I846
tp5247
a(I2
I846
tp5248
a(I3
I846
tp5249
a(I2
I846
tp5250
a(I2
I846
tp5251
a(I2
I846
tp5252
a(I2
I846
tp5253
a(I2
I846
tp5254
a(I2
I846
tp5255
a(I2
I846
tp5256
a(I2
I846
tp5257
a(I2
I846
tp5258
a(I2
I847
tp5259
a(I2
I846
tp5260
a(I2
I846
tp5261
a(I2
I846
tp5262
a(I2
I846
tp5263
a(I2
I846
tp5264
a(I2
I846
tp5265
a(I2
I846
tp5266
a(I2
I846
tp5267
a(I2
I846
tp5268
a(I2
I846
tp5269
a(I2
I847
tp5270
a(I2
I846
tp5271
a(I2
I846
tp5272
a(I2
I846
tp5273
a(I2
I846
tp5274
a(I2
I847
tp5275
a(I2
I846
tp5276
a(I2
I846
tp5277
a(I1
I846
tp5278
a(I2
I846
tp5279
a(I2
I846
tp5280
a(I2
I846
tp5281
a(I2
I846
tp5282
a(I2
I846
tp5283
a(I2
I814
tp5284
a(I2
I846
tp5285
a(I2
I846
tp5286
a(I2
I846
tp5287
a(I2
I846
tp5288
a(I2
I847
tp5289
a(I2
I846
tp5290
a(I1
I846
tp5291
a(I2
I846
tp5292
a(I2
I846
tp5293
a(I2
I846
tp5294
a(I2
I846
tp5295
a(I2
I846
tp5296
a(I2
I846
tp5297
a(I3
I846
tp5298
a(I2
I846
tp5299
a(I2
I847
tp5300
a(I2
I846
tp5301
a(I2
I846
tp5302
a(I2
I846
tp5303
a(I2
I846
tp5304
a(I2
I846
tp5305
a(I2
I846
tp5306
a(I2
I846
tp5307
a(I2
I846
tp5308
a(I2
I846
tp5309
a(I2
I846
tp5310
a(I2
I846
tp5311
a(I2
I845
tp5312
a(I2
I846
tp5313
a(I2
I847
tp5314
a(I2
I846
tp5315
a(I2
I846
tp5316
a(I2
I846
tp5317
a(I2
I846
tp5318
a(I2
I846
tp5319
a(I2
I846
tp5320
a(I2
I846
tp5321
a(I2
I846
tp5322
a(I2
I846
tp5323
a(I2
I846
tp5324
a(I2
I846
tp5325
a(I2
I846
tp5326
a(I2
I846
tp5327
a(I2
I846
tp5328
a(I2
I846
tp5329
a(I2
I846
tp5330
a(I2
I846
tp5331
a(I2
I846
tp5332
a(I2
I846
tp5333
a(I2
I846
tp5334
a(I2
I846
tp5335
a(I2
I846
tp5336
a(I2
I845
tp5337
a(I2
I846
tp5338
a(I2
I846
tp5339
a(I2
I846
tp5340
a(I2
I846
tp5341
a(I2
I846
tp5342
a(I2
I846
tp5343
a(I3
I846
tp5344
a(I2
I846
tp5345
a(I2
I846
tp5346
a(I2
I846
tp5347
a(I2
I845
tp5348
a(I2
I846
tp5349
a(I2
I846
tp5350
a(I2
I846
tp5351
a(I2
I847
tp5352
a(I2
I846
tp5353
a(I2
I846
tp5354
a(I2
I846
tp5355
a(I2
I846
tp5356
a(I2
I846
tp5357
a(I2
I846
tp5358
a(I2
I846
tp5359
a(I2
I846
tp5360
a(I2
I846
tp5361
a(I2
I846
tp5362
a(I2
I846
tp5363
a(I2
I846
tp5364
a(I2
I846
tp5365
a(I2
I847
tp5366
a(I2
I846
tp5367
a(I3
I846
tp5368
a(I2
I846
tp5369
a(I2
I846
tp5370
a(I2
I847
tp5371
a(I2
I847
tp5372
a(I2
I846
tp5373
a(I2
I846
tp5374
a(I2
I846
tp5375
a(I2
I846
tp5376
a(I2
I847
tp5377
a(I2
I846
tp5378
a(I2
I846
tp5379
a(I2
I846
tp5380
a(I2
I846
tp5381
a(I2
I847
tp5382
a(I2
I846
tp5383
a(I2
I846
tp5384
a(I3
I846
tp5385
a(I2
I846
tp5386
a(I2
I846
tp5387
a(I2
I846
tp5388
a(I2
I846
tp5389
a(I2
I846
tp5390
a(I2
I846
tp5391
a(I2
I846
tp5392
a(I2
I847
tp5393
a(I2
I846
tp5394
a(I2
I846
tp5395
a(I2
I846
tp5396
a(I2
I846
tp5397
a(I1
I846
tp5398
a(I2
I846
tp5399
a(I2
I846
tp5400
a(I2
I846
tp5401
a(I2
I846
tp5402
a(I2
I846
tp5403
a(I2
I846
tp5404
a(I2
I846
tp5405
a(I2
I846
tp5406
a(I2
I846
tp5407
a(I2
I846
tp5408
a(I2
I846
tp5409
a(I2
I846
tp5410
a(I2
I846
tp5411
a(I2
I846
tp5412
a(I2
I846
tp5413
a(I2
I846
tp5414
a(I2
I846
tp5415
a(I2
I846
tp5416
a(I2
I846
tp5417
a(I2
I847
tp5418
a(I2
I846
tp5419
a(I2
I846
tp5420
a(I3
I846
tp5421
a(I2
I846
tp5422
a(I2
I846
tp5423
a(I2
I846
tp5424
a(I2
I846
tp5425
a(I2
I846
tp5426
a(I2
I846
tp5427
a(I2
I846
tp5428
a(I2
I846
tp5429
a(I2
I846
tp5430
a(I2
I846
tp5431
a(I2
I846
tp5432
a(I2
I846
tp5433
a(I2
I846
tp5434
a(I2
I846
tp5435
a(I2
I846
tp5436
a(I2
I846
tp5437
a(I2
I846
tp5438
a(I2
I846
tp5439
a(I2
I846
tp5440
a(I2
I846
tp5441
a(I2
I846
tp5442
a(I2
I846
tp5443
a(I2
I846
tp5444
a(I2
I846
tp5445
a(I2
I846
tp5446
a(I2
I846
tp5447
a(I2
I846
tp5448
a(I2
I846
tp5449
a(I2
I847
tp5450
a(I2
I846
tp5451
a(I2
I846
tp5452
a(I2
I846
tp5453
a(I2
I846
tp5454
a(I2
I846
tp5455
a(I2
I846
tp5456
a(I2
I846
tp5457
a(I2
I846
tp5458
a(I2
I846
tp5459
a(I2
I846
tp5460
a(I2
I846
tp5461
a(I3
I846
tp5462
a(I2
I846
tp5463
a(I2
I846
tp5464
a(I2
I846
tp5465
a(I2
I847
tp5466
a(I2
I846
tp5467
a(I2
I846
tp5468
a(I2
I846
tp5469
a(I2
I846
tp5470
a(I2
I847
tp5471
a(I2
I846
tp5472
a(I2
I846
tp5473
a(I2
I846
tp5474
a(I2
I846
tp5475
a(I2
I846
tp5476
a(I2
I846
tp5477
a(I2
I846
tp5478
a(I2
I846
tp5479
a(I2
I846
tp5480
a(I2
I846
tp5481
a(I2
I846
tp5482
a(I2
I820
tp5483
a(I2
I846
tp5484
a(I2
I846
tp5485
a(I2
I846
tp5486
a(I2
I846
tp5487
a(I2
I846
tp5488
a(I2
I846
tp5489
a(I2
I845
tp5490
a(I2
I846
tp5491
a(I2
I846
tp5492
a(I2
I847
tp5493
a(I2
I846
tp5494
a(I2
I846
tp5495
a(I2
I846
tp5496
a(I2
I846
tp5497
a(I2
I846
tp5498
a(I2
I846
tp5499
a(I2
I846
tp5500
a(I2
I846
tp5501
a(I2
I846
tp5502
a(I2
I846
tp5503
a(I2
I847
tp5504
a(I2
I846
tp5505
a(I2
I846
tp5506
a(I2
I846
tp5507
a(I2
I846
tp5508
a(I2
I846
tp5509
a(I3
I846
tp5510
a(I2
I846
tp5511
a(I2
I846
tp5512
a(I2
I846
tp5513
a(I2
I846
tp5514
a(I2
I846
tp5515
a(I2
I839
tp5516
a(I2
I846
tp5517
a(I2
I846
tp5518
a(I2
I847
tp5519
a(I2
I846
tp5520
a(I2
I846
tp5521
a(I3
I846
tp5522
a(I2
I846
tp5523
a(I2
I846
tp5524
a(I2
I846
tp5525
a(I2
I845
tp5526
a(I2
I846
tp5527
a(I2
I846
tp5528
a(I2
I846
tp5529
a(I2
I846
tp5530
a(I2
I846
tp5531
a(I2
I846
tp5532
a(I2
I846
tp5533
a(I2
I846
tp5534
a(I2
I846
tp5535
a(I2
I846
tp5536
a(I2
I846
tp5537
a(I3
I846
tp5538
a(I2
I846
tp5539
a(I2
I845
tp5540
a(I2
I846
tp5541
a(I2
I846
tp5542
a(I2
I846
tp5543
a(I2
I846
tp5544
a(I2
I846
tp5545
a(I2
I846
tp5546
a(I2
I846
tp5547
a(I2
I846
tp5548
a(I2
I846
tp5549
a(I2
I846
tp5550
a(I2
I846
tp5551
a(I2
I846
tp5552
a(I2
I846
tp5553
a(I2
I846
tp5554
a(I2
I846
tp5555
a(I2
I846
tp5556
a(I2
I846
tp5557
a(I2
I846
tp5558
a(I2
I846
tp5559
a(I2
I847
tp5560
a(I2
I846
tp5561
a(I2
I844
tp5562
a(I2
I846
tp5563
a(I2
I846
tp5564
a(I2
I846
tp5565
a(I2
I845
tp5566
a(I2
I846
tp5567
a(I2
I846
tp5568
a(I2
I846
tp5569
a(I2
I847
tp5570
a(I2
I846
tp5571
a(I1
I846
tp5572
a(I2
I847
tp5573
a(I2
I846
tp5574
a(I2
I846
tp5575
a(I2
I846
tp5576
a(I2
I845
tp5577
a(I2
I846
tp5578
a(I2
I847
tp5579
a(I1
I846
tp5580
a(I2
I846
tp5581
a(I2
I846
tp5582
a(I2
I846
tp5583
a(I2
I846
tp5584
a(I2
I846
tp5585
a(I2
I846
tp5586
a(I2
I846
tp5587
a(I2
I839
tp5588
a(I2
I846
tp5589
a(I2
I846
tp5590
a(I2
I846
tp5591
a(I2
I846
tp5592
a(I2
I846
tp5593
a(I2
I846
tp5594
a(I2
I846
tp5595
a(I2
I846
tp5596
a(I2
I846
tp5597
a(I2
I846
tp5598
a(I2
I846
tp5599
a(I2
I846
tp5600
a(I2
I847
tp5601
a(I2
I845
tp5602
a(I2
I846
tp5603
a(I2
I847
tp5604
a(I2
I846
tp5605
a(I2
I846
tp5606
a(I2
I846
tp5607
a(I2
I846
tp5608
a(I2
I846
tp5609
a(I2
I846
tp5610
a(I2
I846
tp5611
a(I2
I846
tp5612
a(I2
I846
tp5613
a(I2
I846
tp5614
a(I2
I846
tp5615
a(I1
I846
tp5616
a(I2
I846
tp5617
a(I2
I846
tp5618
a(I2
I847
tp5619
a(I2
I846
tp5620
a(I2
I846
tp5621
a(I2
I846
tp5622
a(I2
I845
tp5623
a(I2
I846
tp5624
a(I2
I846
tp5625
a(I2
I846
tp5626
a(I2
I846
tp5627
a(I3
I846
tp5628
a(I2
I846
tp5629
a(I2
I846
tp5630
a(I2
I846
tp5631
a(I2
I846
tp5632
a(I2
I846
tp5633
a(I2
I845
tp5634
a(I2
I846
tp5635
a(I2
I846
tp5636
a(I2
I846
tp5637
a(I2
I846
tp5638
a(I2
I846
tp5639
a(I2
I846
tp5640
a(I2
I846
tp5641
a(I2
I846
tp5642
a(I2
I846
tp5643
a(I2
I846
tp5644
a(I2
I846
tp5645
a(I2
I846
tp5646
a(I2
I846
tp5647
a(I2
I846
tp5648
a(I2
I846
tp5649
a(I2
I846
tp5650
a(I2
I846
tp5651
a(I2
I846
tp5652
a(I2
I846
tp5653
a(I2
I846
tp5654
a(I2
I846
tp5655
a(I2
I846
tp5656
a(I2
I846
tp5657
a(I2
I846
tp5658
a(I2
I846
tp5659
a(I2
I846
tp5660
a(I2
I846
tp5661
a(I2
I846
tp5662
a(I2
I846
tp5663
a(I2
I846
tp5664
a(I2
I846
tp5665
a(I2
I846
tp5666
a(I2
I846
tp5667
a(I2
I846
tp5668
a(I2
I846
tp5669
a(I2
I846
tp5670
a(I2
I846
tp5671
a(I2
I846
tp5672
a(I2
I846
tp5673
a(I2
I846
tp5674
a(I3
I846
tp5675
a(I2
I847
tp5676
a(I2
I846
tp5677
a(I2
I846
tp5678
a(I2
I846
tp5679
a(I2
I846
tp5680
a(I2
I846
tp5681
a(I1
I846
tp5682
a(I2
I846
tp5683
a(I2
I846
tp5684
a(I2
I846
tp5685
a(I2
I846
tp5686
a(I2
I846
tp5687
a(I2
I846
tp5688
a(I2
I846
tp5689
a(I2
I846
tp5690
a(I2
I846
tp5691
a(I2
I846
tp5692
a(I2
I846
tp5693
a(I2
I845
tp5694
a(I2
I846
tp5695
a(I2
I846
tp5696
a(I2
I845
tp5697
a(I2
I833
tp5698
a(I2
I846
tp5699
a(I1
I846
tp5700
a(I2
I847
tp5701
a(I2
I846
tp5702
a(I2
I846
tp5703
a(I2
I846
tp5704
a(I2
I846
tp5705
a(I2
I846
tp5706
a(I2
I846
tp5707
a(I2
I846
tp5708
a(I2
I846
tp5709
a(I2
I846
tp5710
a(I2
I846
tp5711
a(I2
I846
tp5712
a(I2
I846
tp5713
a(I2
I846
tp5714
a(I2
I846
tp5715
a(I2
I845
tp5716
a(I3
I847
tp5717
a(I2
I846
tp5718
a(I2
I846
tp5719
a(I2
I846
tp5720
a(I2
I846
tp5721
a(I2
I846
tp5722
a(I2
I839
tp5723
a(I2
I846
tp5724
a(I2
I846
tp5725
a(I2
I846
tp5726
a(I2
I846
tp5727
a(I2
I847
tp5728
a(I2
I846
tp5729
a(I2
I846
tp5730
a(I2
I846
tp5731
a(I2
I845
tp5732
a(I2
I846
tp5733
a(I3
I846
tp5734
a(I2
I846
tp5735
a(I2
I846
tp5736
a(I2
I846
tp5737
a(I2
I845
tp5738
a(I2
I847
tp5739
a(I2
I846
tp5740
a(I2
I846
tp5741
a(I2
I846
tp5742
a(I2
I845
tp5743
a(I2
I846
tp5744
a(I2
I847
tp5745
a(I2
I846
tp5746
a(I2
I846
tp5747
a(I2
I846
tp5748
a(I2
I846
tp5749
a(I2
I847
tp5750
a(I2
I846
tp5751
a(I2
I846
tp5752
a(I2
I846
tp5753
a(I2
I846
tp5754
a(I2
I846
tp5755
a(I2
I846
tp5756
a(I2
I846
tp5757
a(I1
I846
tp5758
a(I2
I846
tp5759
a(I2
I846
tp5760
a(I2
I846
tp5761
a(I2
I846
tp5762
a(I2
I846
tp5763
a(I2
I846
tp5764
a(I2
I846
tp5765
a(I2
I846
tp5766
a(I2
I846
tp5767
a(I2
I846
tp5768
a(I2
I846
tp5769
a(I2
I846
tp5770
a(I2
I846
tp5771
a(I2
I846
tp5772
a(I2
I846
tp5773
a(I2
I847
tp5774
a(I2
I846
tp5775
a(I2
I846
tp5776
a(I2
I846
tp5777
a(I2
I846
tp5778
a(I2
I846
tp5779
a(I2
I846
tp5780
a(I2
I846
tp5781
a(I2
I846
tp5782
a(I2
I847
tp5783
a(I2
I846
tp5784
a(I2
I846
tp5785
a(I2
I846
tp5786
a(I2
I846
tp5787
a(I2
I846
tp5788
a(I2
I846
tp5789
a(I2
I846
tp5790
a(I2
I846
tp5791
a(I2
I846
tp5792
a(I2
I846
tp5793
a(I2
I846
tp5794
a(I2
I846
tp5795
a(I2
I846
tp5796
a(I2
I846
tp5797
a(I2
I846
tp5798
a(I2
I846
tp5799
a(I2
I846
tp5800
a(I2
I846
tp5801
a(I2
I846
tp5802
a(I2
I846
tp5803
a(I2
I846
tp5804
a(I2
I846
tp5805
a(I2
I846
tp5806
a(I2
I846
tp5807
a(I2
I846
tp5808
a(I2
I846
tp5809
a(I2
I846
tp5810
a(I2
I846
tp5811
a(I2
I846
tp5812
a(I2
I846
tp5813
a(I2
I846
tp5814
a(I2
I846
tp5815
a(I2
I846
tp5816
a(I2
I846
tp5817
a(I2
I846
tp5818
a(I2
I846
tp5819
a(I2
I846
tp5820
a(I2
I846
tp5821
a(I2
I846
tp5822
a(I2
I846
tp5823
a(I2
I846
tp5824
a(I3
I846
tp5825
a(I2
I846
tp5826
a(I2
I846
tp5827
a(I2
I846
tp5828
a(I2
I846
tp5829
a(I2
I846
tp5830
a(I2
I846
tp5831
a(I2
I846
tp5832
a(I2
I846
tp5833
a(I2
I846
tp5834
a(I2
I846
tp5835
a(I2
I846
tp5836
a(I2
I846
tp5837
a(I2
I846
tp5838
a(I2
I847
tp5839
a(I2
I846
tp5840
a(I2
I846
tp5841
a(I2
I846
tp5842
a(I2
I847
tp5843
a(I2
I846
tp5844
a(I2
I846
tp5845
a(I3
I846
tp5846
a(I2
I846
tp5847
a(I2
I846
tp5848
a(I3
I846
tp5849
a(I2
I846
tp5850
a(I2
I846
tp5851
a(I2
I846
tp5852
a(I2
I846
tp5853
a(I2
I846
tp5854
a(I2
I846
tp5855
a(I2
I846
tp5856
a(I2
I846
tp5857
a(I2
I846
tp5858
a(I2
I846
tp5859
a(I2
I846
tp5860
a(I2
I846
tp5861
a(I2
I846
tp5862
a(I2
I846
tp5863
a(I2
I846
tp5864
a(I2
I847
tp5865
a(I2
I846
tp5866
a(I2
I846
tp5867
a(I2
I846
tp5868
a(I2
I846
tp5869
a(I2
I846
tp5870
a(I2
I846
tp5871
a(I2
I846
tp5872
a(I2
I846
tp5873
a(I2
I846
tp5874
a(I2
I847
tp5875
a(I2
I846
tp5876
a(I2
I846
tp5877
a(I2
I847
tp5878
a(I2
I846
tp5879
a(I2
I846
tp5880
a(I2
I846
tp5881
a(I2
I846
tp5882
a(I2
I847
tp5883
a(I2
I846
tp5884
a(I2
I846
tp5885
a(I2
I846
tp5886
a(I2
I846
tp5887
a(I2
I846
tp5888
a(I2
I846
tp5889
a(I2
I846
tp5890
a(I2
I846
tp5891
a(I2
I846
tp5892
a(I2
I846
tp5893
a(I2
I846
tp5894
a(I2
I846
tp5895
a(I2
I846
tp5896
a(I2
I846
tp5897
a(I2
I846
tp5898
a(I2
I846
tp5899
a(I2
I846
tp5900
a(I2
I846
tp5901
a(I2
I846
tp5902
a(I2
I846
tp5903
a(I2
I846
tp5904
a(I2
I846
tp5905
a(I2
I846
tp5906
a(I2
I844
tp5907
a(I2
I846
tp5908
a(I2
I846
tp5909
a(I2
I846
tp5910
a(I2
I846
tp5911
a(I2
I845
tp5912
a(I2
I846
tp5913
a(I2
I846
tp5914
a(I2
I846
tp5915
a(I2
I846
tp5916
a(I2
I846
tp5917
a(I2
I846
tp5918
a(I2
I846
tp5919
a(I2
I846
tp5920
a(I2
I846
tp5921
a(I2
I846
tp5922
a(I2
I846
tp5923
a(I2
I846
tp5924
a(I2
I846
tp5925
a(I2
I846
tp5926
a(I2
I846
tp5927
a(I2
I846
tp5928
a(I2
I846
tp5929
a(I2
I846
tp5930
a(I2
I846
tp5931
a(I2
I846
tp5932
a(I2
I846
tp5933
a(I2
I846
tp5934
a(I2
I846
tp5935
a(I2
I846
tp5936
a(I2
I846
tp5937
a(I2
I846
tp5938
a(I2
I846
tp5939
a(I2
I846
tp5940
a(I2
I846
tp5941
a(I2
I846
tp5942
a(I2
I846
tp5943
a(I2
I846
tp5944
a(I2
I846
tp5945
a(I2
I846
tp5946
a(I2
I846
tp5947
a(I2
I846
tp5948
a(I2
I846
tp5949
a(I2
I846
tp5950
a(I2
I846
tp5951
a(I2
I847
tp5952
a(I1
I846
tp5953
a(I2
I846
tp5954
a(I2
I846
tp5955
a(I2
I846
tp5956
a(I2
I846
tp5957
a(I2
I846
tp5958
a(I2
I846
tp5959
a(I2
I846
tp5960
a(I2
I846
tp5961
a(I2
I847
tp5962
a(I2
I846
tp5963
a(I2
I846
tp5964
a(I2
I846
tp5965
a(I2
I846
tp5966
a(I2
I846
tp5967
a(I2
I846
tp5968
a(I2
I846
tp5969
a(I2
I846
tp5970
a(I2
I846
tp5971
a(I2
I846
tp5972
a(I2
I846
tp5973
a(I2
I846
tp5974
a(I2
I846
tp5975
a(I2
I846
tp5976
a(I2
I846
tp5977
a(I2
I846
tp5978
a(I2
I847
tp5979
a(I2
I846
tp5980
a(I2
I846
tp5981
a(I2
I846
tp5982
a(I2
I846
tp5983
a(I2
I846
tp5984
a(I2
I846
tp5985
a(I2
I846
tp5986
a(I2
I846
tp5987
a(I2
I846
tp5988
a(I1
I846
tp5989
a(I2
I847
tp5990
a(I2
I846
tp5991
a(I2
I846
tp5992
a(I2
I846
tp5993
a(I2
I846
tp5994
a(I2
I846
tp5995
a(I3
I846
tp5996
a(I2
I846
tp5997
a(I2
I846
tp5998
a(I2
I846
tp5999
a(I2
I846
tp6000
a(I2
I846
tp6001
a(I2
I845
tp6002
a(I2
I846
tp6003
a(I2
I846
tp6004
a(I2
I846
tp6005
a(I2
I846
tp6006
a(I2
I846
tp6007
a(I2
I846
tp6008
a(I2
I846
tp6009
a(I2
I846
tp6010
a(I2
I847
tp6011
a(I2
I846
tp6012
a(I2
I846
tp6013
asS'UP'
p6014
(lp6015
(I2
I846
tp6016
a(I2
I846
tp6017
a(I2
I846
tp6018
a(I2
I846
tp6019
a(I3
I845
tp6020
a(I2
I846
tp6021
a(I2
I846
tp6022
a(I2
I846
tp6023
a(I2
I846
tp6024
a(I2
I846
tp6025
a(I2
I846
tp6026
a(I2
I847
tp6027
a(I2
I846
tp6028
a(I2
I846
tp6029
a(I2
I846
tp6030
a(I2
I845
tp6031
a(I2
I846
tp6032
a(I2
I847
tp6033
a(I2
I846
tp6034
a(I2
I846
tp6035
a(I2
I846
tp6036
a(I2
I846
tp6037
a(I2
I846
tp6038
a(I2
I846
tp6039
a(I2
I846
tp6040
a(I2
I846
tp6041
a(I2
I846
tp6042
a(I2
I847
tp6043
a(I2
I846
tp6044
a(I2
I846
tp6045
a(I2
I846
tp6046
a(I2
I846
tp6047
a(I2
I846
tp6048
a(I2
I846
tp6049
a(I2
I846
tp6050
a(I2
I846
tp6051
a(I2
I846
tp6052
a(I2
I846
tp6053
a(I2
I846
tp6054
a(I2
I846
tp6055
a(I2
I846
tp6056
a(I2
I846
tp6057
a(I2
I846
tp6058
a(I2
I846
tp6059
a(I2
I846
tp6060
a(I2
I846
tp6061
a(I2
I846
tp6062
a(I2
I846
tp6063
a(I2
I846
tp6064
a(I2
I846
tp6065
a(I2
I846
tp6066
a(I2
I846
tp6067
a(I2
I847
tp6068
a(I2
I846
tp6069
a(I2
I846
tp6070
a(I2
I846
tp6071
a(I2
I846
tp6072
a(I2
I846
tp6073
a(I2
I846
tp6074
a(I2
I846
tp6075
a(I2
I846
tp6076
a(I2
I846
tp6077
a(I2
I846
tp6078
a(I2
I847
tp6079
a(I2
I846
tp6080
a(I2
I846
tp6081
a(I2
I846
tp6082
a(I2
I846
tp6083
a(I2
I846
tp6084
a(I2
I846
tp6085
a(I2
I846
tp6086
a(I2
I846
tp6087
a(I2
I846
tp6088
a(I2
I846
tp6089
a(I2
I845
tp6090
a(I2
I846
tp6091
a(I2
I846
tp6092
a(I2
I846
tp6093
a(I2
I846
tp6094
a(I2
I846
tp6095
a(I2
I846
tp6096
a(I2
I846
tp6097
a(I2
I846
tp6098
a(I2
I846
tp6099
a(I2
I846
tp6100
a(I2
I847
tp6101
a(I2
I846
tp6102
a(I2
I846
tp6103
a(I3
I846
tp6104
a(I2
I846
tp6105
a(I2
I846
tp6106
a(I2
I846
tp6107
a(I2
I846
tp6108
a(I3
I846
tp6109
a(I2
I846
tp6110
a(I2
I846
tp6111
a(I2
I846
tp6112
a(I2
I846
tp6113
a(I2
I846
tp6114
a(I2
I846
tp6115
a(I2
I846
tp6116
a(I2
I846
tp6117
a(I2
I847
tp6118
a(I2
I846
tp6119
a(I2
I846
tp6120
a(I2
I846
tp6121
a(I2
I846
tp6122
a(I2
I846
tp6123
a(I2
I846
tp6124
a(I2
I846
tp6125
a(I2
I846
tp6126
a(I2
I846
tp6127
a(I2
I846
tp6128
a(I2
I846
tp6129
a(I2
I846
tp6130
a(I2
I846
tp6131
a(I2
I846
tp6132
a(I2
I846
tp6133
a(I2
I847
tp6134
a(I2
I846
tp6135
a(I2
I846
tp6136
a(I2
I847
tp6137
a(I2
I846
tp6138
a(I2
I846
tp6139
a(I2
I846
tp6140
a(I2
I846
tp6141
a(I2
I846
tp6142
a(I2
I846
tp6143
a(I2
I846
tp6144
a(I2
I846
tp6145
a(I2
I846
tp6146
a(I2
I846
tp6147
a(I2
I846
tp6148
a(I2
I847
tp6149
a(I2
I846
tp6150
a(I2
I846
tp6151
a(I2
I846
tp6152
a(I1
I846
tp6153
a(I2
I846
tp6154
a(I2
I847
tp6155
a(I2
I846
tp6156
a(I2
I846
tp6157
a(I2
I846
tp6158
a(I2
I846
tp6159
a(I2
I846
tp6160
a(I2
I846
tp6161
a(I2
I846
tp6162
a(I2
I846
tp6163
a(I2
I846
tp6164
a(I2
I846
tp6165
a(I2
I846
tp6166
a(I2
I846
tp6167
a(I2
I846
tp6168
a(I2
I846
tp6169
a(I2
I846
tp6170
a(I2
I846
tp6171
a(I2
I846
tp6172
a(I2
I846
tp6173
a(I2
I846
tp6174
a(I2
I846
tp6175
a(I2
I846
tp6176
a(I2
I846
tp6177
a(I2
I846
tp6178
a(I2
I846
tp6179
a(I2
I846
tp6180
a(I2
I846
tp6181
a(I2
I846
tp6182
a(I2
I846
tp6183
a(I2
I846
tp6184
a(I2
I845
tp6185
a(I2
I846
tp6186
a(I2
I846
tp6187
a(I2
I846
tp6188
a(I2
I846
tp6189
a(I2
I845
tp6190
a(I2
I846
tp6191
a(I2
I846
tp6192
a(I2
I846
tp6193
a(I2
I846
tp6194
a(I2
I846
tp6195
a(I2
I846
tp6196
a(I2
I846
tp6197
a(I2
I846
tp6198
a(I2
I846
tp6199
a(I2
I846
tp6200
a(I2
I846
tp6201
a(I2
I846
tp6202
a(I2
I846
tp6203
a(I2
I846
tp6204
a(I2
I846
tp6205
a(I2
I846
tp6206
a(I2
I846
tp6207
a(I2
I846
tp6208
a(I2
I846
tp6209
a(I2
I846
tp6210
a(I2
I846
tp6211
a(I2
I845
tp6212
a(I2
I846
tp6213
a(I2
I846
tp6214
a(I2
I846
tp6215
a(I2
I837
tp6216
a(I2
I846
tp6217
a(I2
I846
tp6218
a(I2
I846
tp6219
a(I2
I845
tp6220
a(I2
I846
tp6221
a(I2
I846
tp6222
a(I2
I846
tp6223
a(I2
I846
tp6224
a(I2
I846
tp6225
a(I2
I846
tp6226
a(I2
I846
tp6227
a(I2
I847
tp6228
a(I2
I846
tp6229
a(I2
I846
tp6230
a(I2
I846
tp6231
a(I2
I847
tp6232
a(I2
I846
tp6233
a(I2
I846
tp6234
a(I2
I846
tp6235
a(I2
I846
tp6236
a(I2
I846
tp6237
a(I2
I846
tp6238
a(I2
I846
tp6239
a(I2
I846
tp6240
a(I2
I847
tp6241
a(I2
I846
tp6242
a(I2
I846
tp6243
a(I2
I846
tp6244
a(I2
I846
tp6245
a(I2
I846
tp6246
a(I2
I846
tp6247
a(I2
I846
tp6248
a(I2
I846
tp6249
a(I2
I846
tp6250
a(I2
I846
tp6251
a(I2
I847
tp6252
a(I2
I847
tp6253
a(I2
I846
tp6254
a(I2
I846
tp6255
a(I2
I846
tp6256
a(I2
I846
tp6257
a(I3
I846
tp6258
a(I2
I846
tp6259
a(I2
I846
tp6260
a(I2
I846
tp6261
a(I2
I846
tp6262
a(I2
I846
tp6263
a(I2
I846
tp6264
a(I2
I846
tp6265
a(I2
I846
tp6266
a(I2
I847
tp6267
a(I2
I846
tp6268
a(I2
I846
tp6269
a(I3
I846
tp6270
a(I2
I846
tp6271
a(I2
I845
tp6272
a(I2
I846
tp6273
a(I2
I847
tp6274
a(I2
I847
tp6275
a(I2
I846
tp6276
a(I2
I846
tp6277
a(I2
I846
tp6278
a(I2
I846
tp6279
a(I2
I846
tp6280
a(I2
I846
tp6281
a(I2
I845
tp6282
a(I2
I846
tp6283
a(I2
I846
tp6284
a(I1
I846
tp6285
a(I2
I846
tp6286
a(I2
I846
tp6287
a(I2
I846
tp6288
a(I2
I846
tp6289
a(I2
I847
tp6290
a(I2
I847
tp6291
a(I2
I846
tp6292
a(I2
I846
tp6293
a(I2
I846
tp6294
a(I2
I846
tp6295
a(I2
I846
tp6296
a(I2
I846
tp6297
a(I2
I846
tp6298
a(I2
I846
tp6299
a(I2
I846
tp6300
a(I2
I846
tp6301
a(I2
I846
tp6302
a(I2
I845
tp6303
a(I2
I846
tp6304
a(I2
I846
tp6305
a(I2
I846
tp6306
a(I2
I846
tp6307
a(I2
I846
tp6308
a(I2
I846
tp6309
a(I2
I846
tp6310
a(I2
I847
tp6311
a(I2
I846
tp6312
a(I2
I846
tp6313
a(I2
I846
tp6314
a(I2
I846
tp6315
a(I2
I847
tp6316
a(I2
I846
tp6317
a(I2
I846
tp6318
a(I2
I846
tp6319
a(I2
I846
tp6320
a(I2
I846
tp6321
a(I2
I846
tp6322
a(I2
I846
tp6323
a(I2
I846
tp6324
a(I2
I846
tp6325
a(I2
I846
tp6326
a(I2
I847
tp6327
a(I2
I846
tp6328
a(I2
I846
tp6329
a(I2
I839
tp6330
a(I2
I846
tp6331
a(I2
I846
tp6332
a(I2
I1
tp6333
a(I2
I846
tp6334
a(I2
I846
tp6335
a(I2
I846
tp6336
a(I2
I846
tp6337
a(I2
I846
tp6338
a(I2
I846
tp6339
a(I2
I846
tp6340
a(I2
I846
tp6341
a(I2
I845
tp6342
a(I2
I846
tp6343
a(I2
I846
tp6344
a(I2
I846
tp6345
a(I2
I846
tp6346
a(I2
I846
tp6347
a(I2
I846
tp6348
a(I2
I846
tp6349
a(I2
I846
tp6350
a(I2
I847
tp6351
a(I2
I847
tp6352
a(I2
I846
tp6353
a(I2
I846
tp6354
a(I2
I846
tp6355
a(I2
I846
tp6356
a(I2
I846
tp6357
a(I2
I846
tp6358
a(I2
I845
tp6359
a(I2
I846
tp6360
a(I2
I846
tp6361
a(I2
I846
tp6362
a(I2
I847
tp6363
a(I2
I846
tp6364
a(I2
I846
tp6365
a(I2
I847
tp6366
a(I2
I846
tp6367
a(I2
I846
tp6368
a(I3
I846
tp6369
a(I2
I846
tp6370
a(I2
I846
tp6371
a(I2
I846
tp6372
a(I2
I846
tp6373
a(I2
I846
tp6374
a(I2
I846
tp6375
a(I2
I846
tp6376
a(I2
I846
tp6377
a(I2
I846
tp6378
a(I2
I846
tp6379
a(I2
I846
tp6380
a(I2
I846
tp6381
a(I2
I846
tp6382
a(I2
I846
tp6383
a(I2
I846
tp6384
a(I2
I846
tp6385
a(I2
I846
tp6386
a(I2
I846
tp6387
a(I2
I846
tp6388
a(I2
I846
tp6389
a(I2
I846
tp6390
a(I2
I846
tp6391
a(I2
I846
tp6392
a(I2
I846
tp6393
a(I2
I622
tp6394
a(I2
I847
tp6395
a(I2
I846
tp6396
a(I2
I846
tp6397
a(I2
I846
tp6398
a(I2
I846
tp6399
a(I2
I846
tp6400
a(I2
I846
tp6401
a(I2
I846
tp6402
a(I2
I846
tp6403
a(I2
I846
tp6404
a(I2
I846
tp6405
a(I2
I847
tp6406
a(I2
I846
tp6407
a(I2
I846
tp6408
a(I2
I846
tp6409
a(I2
I846
tp6410
a(I1
I846
tp6411
a(I3
I846
tp6412
a(I2
I846
tp6413
a(I2
I846
tp6414
a(I2
I726
tp6415
a(I2
I844
tp6416
a(I2
I846
tp6417
a(I2
I846
tp6418
a(I2
I846
tp6419
a(I2
I847
tp6420
a(I2
I846
tp6421
a(I2
I846
tp6422
a(I2
I846
tp6423
a(I3
I846
tp6424
a(I2
I846
tp6425
a(I2
I846
tp6426
a(I2
I846
tp6427
a(I2
I846
tp6428
a(I3
I846
tp6429
a(I2
I846
tp6430
a(I2
I846
tp6431
a(I2
I846
tp6432
a(I2
I846
tp6433
a(I2
I846
tp6434
a(I2
I846
tp6435
a(I2
I846
tp6436
a(I2
I846
tp6437
a(I2
I846
tp6438
a(I2
I846
tp6439
a(I2
I846
tp6440
a(I2
I846
tp6441
a(I2
I846
tp6442
a(I2
I846
tp6443
a(I2
I846
tp6444
a(I2
I846
tp6445
a(I2
I846
tp6446
a(I2
I846
tp6447
a(I2
I846
tp6448
a(I2
I846
tp6449
a(I2
I846
tp6450
a(I2
I846
tp6451
a(I2
I846
tp6452
a(I2
I847
tp6453
a(I2
I846
tp6454
a(I2
I846
tp6455
a(I2
I846
tp6456
a(I2
I845
tp6457
a(I2
I847
tp6458
a(I2
I846
tp6459
a(I2
I846
tp6460
a(I2
I846
tp6461
a(I2
I846
tp6462
a(I2
I846
tp6463
a(I2
I846
tp6464
a(I2
I847
tp6465
a(I2
I846
tp6466
a(I2
I846
tp6467
a(I2
I846
tp6468
a(I2
I846
tp6469
a(I2
I846
tp6470
a(I2
I846
tp6471
a(I2
I846
tp6472
a(I2
I846
tp6473
a(I2
I846
tp6474
a(I2
I846
tp6475
a(I2
I846
tp6476
a(I1
I846
tp6477
a(I2
I846
tp6478
a(I2
I846
tp6479
a(I2
I846
tp6480
a(I2
I847
tp6481
a(I2
I846
tp6482
a(I2
I846
tp6483
a(I2
I846
tp6484
a(I2
I846
tp6485
a(I2
I846
tp6486
a(I2
I846
tp6487
a(I2
I846
tp6488
a(I2
I846
tp6489
a(I2
I846
tp6490
a(I2
I846
tp6491
a(I2
I846
tp6492
a(I2
I846
tp6493
a(I1
I846
tp6494
a(I2
I846
tp6495
a(I2
I846
tp6496
a(I2
I846
tp6497
a(I2
I846
tp6498
a(I2
I847
tp6499
a(I2
I846
tp6500
a(I2
I846
tp6501
a(I2
I846
tp6502
a(I2
I846
tp6503
a(I2
I846
tp6504
a(I2
I846
tp6505
a(I3
I846
tp6506
a(I2
I846
tp6507
a(I2
I846
tp6508
a(I2
I846
tp6509
a(I2
I846
tp6510
a(I2
I846
tp6511
a(I2
I846
tp6512
a(I2
I847
tp6513
a(I2
I846
tp6514
a(I2
I845
tp6515
a(I2
I846
tp6516
a(I2
I846
tp6517
a(I2
I846
tp6518
a(I2
I846
tp6519
a(I2
I846
tp6520
a(I2
I846
tp6521
a(I2
I846
tp6522
a(I2
I846
tp6523
a(I2
I846
tp6524
a(I2
I846
tp6525
a(I2
I846
tp6526
a(I2
I846
tp6527
a(I2
I846
tp6528
a(I1
I846
tp6529
a(I2
I846
tp6530
a(I2
I846
tp6531
a(I2
I846
tp6532
a(I2
I846
tp6533
a(I1
I846
tp6534
a(I2
I847
tp6535
a(I2
I846
tp6536
a(I2
I846
tp6537
a(I2
I846
tp6538
a(I2
I846
tp6539
a(I2
I846
tp6540
a(I2
I846
tp6541
a(I2
I846
tp6542
a(I2
I846
tp6543
a(I2
I846
tp6544
a(I2
I847
tp6545
a(I2
I847
tp6546
a(I2
I846
tp6547
a(I2
I846
tp6548
a(I2
I846
tp6549
a(I2
I846
tp6550
a(I2
I846
tp6551
a(I2
I846
tp6552
a(I2
I846
tp6553
a(I2
I846
tp6554
a(I2
I846
tp6555
a(I2
I846
tp6556
a(I2
I846
tp6557
a(I2
I846
tp6558
a(I2
I846
tp6559
a(I2
I846
tp6560
a(I2
I846
tp6561
a(I2
I846
tp6562
a(I2
I846
tp6563
a(I2
I846
tp6564
a(I2
I846
tp6565
a(I2
I846
tp6566
a(I2
I847
tp6567
a(I2
I846
tp6568
a(I2
I846
tp6569
a(I2
I847
tp6570
a(I2
I846
tp6571
a(I2
I846
tp6572
a(I2
I846
tp6573
a(I2
I846
tp6574
a(I2
I847
tp6575
a(I2
I846
tp6576
a(I2
I846
tp6577
a(I3
I846
tp6578
a(I2
I846
tp6579
a(I2
I846
tp6580
a(I2
I846
tp6581
a(I2
I846
tp6582
a(I2
I846
tp6583
a(I2
I846
tp6584
a(I2
I846
tp6585
a(I2
I846
tp6586
a(I2
I846
tp6587
a(I2
I846
tp6588
a(I2
I846
tp6589
a(I2
I846
tp6590
a(I2
I846
tp6591
a(I2
I846
tp6592
a(I2
I846
tp6593
a(I2
I846
tp6594
a(I3
I846
tp6595
a(I2
I846
tp6596
a(I2
I846
tp6597
a(I2
I845
tp6598
a(I2
I846
tp6599
a(I2
I846
tp6600
a(I2
I846
tp6601
a(I2
I846
tp6602
a(I2
I846
tp6603
a(I2
I846
tp6604
a(I2
I846
tp6605
a(I2
I846
tp6606
a(I2
I846
tp6607
a(I2
I846
tp6608
a(I2
I846
tp6609
a(I2
I846
tp6610
a(I2
I846
tp6611
a(I2
I846
tp6612
a(I2
I846
tp6613
a(I2
I846
tp6614
a(I2
I846
tp6615
a(I2
I846
tp6616
a(I2
I846
tp6617
a(I2
I846
tp6618
a(I2
I846
tp6619
a(I2
I846
tp6620
a(I2
I846
tp6621
a(I2
I846
tp6622
a(I2
I846
tp6623
a(I2
I846
tp6624
a(I2
I846
tp6625
a(I2
I846
tp6626
a(I2
I846
tp6627
a(I2
I846
tp6628
a(I2
I846
tp6629
a(I2
I846
tp6630
a(I2
I846
tp6631
a(I2
I846
tp6632
a(I2
I846
tp6633
a(I2
I846
tp6634
a(I3
I846
tp6635
a(I2
I846
tp6636
a(I2
I846
tp6637
a(I2
I846
tp6638
a(I2
I846
tp6639
a(I2
I846
tp6640
a(I2
I846
tp6641
a(I2
I846
tp6642
a(I2
I846
tp6643
a(I2
I846
tp6644
a(I2
I846
tp6645
a(I2
I847
tp6646
a(I2
I847
tp6647
a(I2
I846
tp6648
a(I2
I846
tp6649
a(I2
I846
tp6650
a(I2
I846
tp6651
a(I2
I847
tp6652
a(I2
I846
tp6653
a(I2
I846
tp6654
a(I1
I846
tp6655
a(I3
I846
tp6656
a(I2
I847
tp6657
a(I2
I846
tp6658
a(I2
I753
tp6659
a(I2
I846
tp6660
a(I2
I439
tp6661
a(I2
I846
tp6662
a(I2
I846
tp6663
a(I2
I847
tp6664
a(I2
I846
tp6665
a(I2
I846
tp6666
a(I2
I846
tp6667
a(I2
I846
tp6668
a(I2
I846
tp6669
a(I2
I846
tp6670
a(I2
I846
tp6671
a(I2
I846
tp6672
a(I2
I846
tp6673
a(I3
I846
tp6674
a(I2
I846
tp6675
a(I2
I846
tp6676
a(I2
I846
tp6677
a(I2
I846
tp6678
a(I2
I846
tp6679
a(I2
I846
tp6680
a(I2
I846
tp6681
a(I2
I846
tp6682
a(I2
I846
tp6683
a(I2
I846
tp6684
a(I2
I846
tp6685
a(I2
I846
tp6686
a(I2
I846
tp6687
a(I2
I846
tp6688
a(I2
I846
tp6689
a(I2
I846
tp6690
a(I2
I846
tp6691
a(I2
I846
tp6692
a(I2
I846
tp6693
a(I2
I846
tp6694
a(I2
I846
tp6695
a(I2
I846
tp6696
a(I2
I846
tp6697
a(I2
I847
tp6698
a(I2
I846
tp6699
a(I2
I846
tp6700
a(I2
I846
tp6701
a(I2
I846
tp6702
a(I2
I846
tp6703
a(I2
I846
tp6704
a(I2
I846
tp6705
a(I2
I846
tp6706
a(I2
I846
tp6707
a(I2
I846
tp6708
a(I2
I846
tp6709
a(I2
I846
tp6710
a(I2
I845
tp6711
a(I2
I846
tp6712
a(I2
I846
tp6713
a(I3
I846
tp6714
a(I2
I845
tp6715
a(I2
I846
tp6716
a(I2
I846
tp6717
a(I2
I846
tp6718
a(I2
I846
tp6719
a(I2
I846
tp6720
a(I2
I846
tp6721
a(I2
I846
tp6722
a(I2
I846
tp6723
a(I2
I846
tp6724
a(I2
I846
tp6725
a(I2
I846
tp6726
a(I2
I846
tp6727
a(I2
I846
tp6728
a(I2
I846
tp6729
a(I2
I846
tp6730
a(I2
I847
tp6731
a(I2
I846
tp6732
a(I2
I846
tp6733
a(I2
I846
tp6734
a(I2
I846
tp6735
a(I2
I847
tp6736
a(I2
I846
tp6737
a(I2
I846
tp6738
a(I2
I846
tp6739
a(I2
I846
tp6740
a(I2
I847
tp6741
a(I2
I846
tp6742
a(I2
I846
tp6743
a(I2
I688
tp6744
a(I2
I846
tp6745
a(I2
I846
tp6746
a(I2
I846
tp6747
a(I2
I845
tp6748
a(I2
I846
tp6749
a(I2
I847
tp6750
a(I2
I846
tp6751
a(I2
I846
tp6752
a(I2
I846
tp6753
a(I2
I846
tp6754
a(I2
I846
tp6755
a(I2
I846
tp6756
a(I2
I846
tp6757
a(I2
I846
tp6758
a(I2
I846
tp6759
a(I2
I846
tp6760
a(I1
I846
tp6761
a(I2
I846
tp6762
a(I2
I846
tp6763
a(I2
I846
tp6764
a(I2
I846
tp6765
a(I2
I846
tp6766
a(I2
I846
tp6767
a(I2
I845
tp6768
a(I2
I846
tp6769
a(I2
I846
tp6770
a(I2
I846
tp6771
a(I2
I846
tp6772
a(I2
I846
tp6773
a(I2
I846
tp6774
a(I2
I846
tp6775
a(I2
I846
tp6776
a(I2
I846
tp6777
a(I2
I846
tp6778
a(I2
I846
tp6779
a(I2
I846
tp6780
a(I2
I846
tp6781
a(I2
I846
tp6782
a(I2
I846
tp6783
a(I2
I846
tp6784
a(I3
I847
tp6785
a(I2
I846
tp6786
a(I2
I846
tp6787
a(I2
I846
tp6788
a(I2
I845
tp6789
a(I2
I846
tp6790
a(I2
I847
tp6791
a(I2
I846
tp6792
a(I2
I846
tp6793
a(I2
I846
tp6794
a(I2
I846
tp6795
a(I1
I846
tp6796
a(I2
I846
tp6797
a(I2
I846
tp6798
a(I2
I846
tp6799
a(I2
I846
tp6800
a(I3
I846
tp6801
a(I3
I846
tp6802
a(I2
I846
tp6803
a(I2
I847
tp6804
a(I2
I846
tp6805
a(I2
I846
tp6806
a(I2
I846
tp6807
a(I2
I846
tp6808
a(I2
I846
tp6809
a(I2
I846
tp6810
a(I2
I846
tp6811
a(I2
I846
tp6812
a(I2
I846
tp6813
a(I2
I846
tp6814
a(I2
I846
tp6815
a(I2
I846
tp6816
a(I2
I846
tp6817
a(I2
I846
tp6818
a(I2
I846
tp6819
a(I2
I846
tp6820
a(I2
I846
tp6821
a(I2
I846
tp6822
a(I2
I846
tp6823
a(I3
I847
tp6824
a(I2
I847
tp6825
a(I2
I846
tp6826
a(I2
I846
tp6827
a(I2
I846
tp6828
a(I2
I847
tp6829
a(I2
I846
tp6830
a(I2
I846
tp6831
a(I2
I846
tp6832
a(I2
I846
tp6833
a(I2
I846
tp6834
a(I2
I846
tp6835
a(I2
I846
tp6836
a(I2
I846
tp6837
a(I2
I846
tp6838
a(I2
I846
tp6839
a(I2
I846
tp6840
a(I2
I846
tp6841
a(I2
I846
tp6842
a(I2
I846
tp6843
a(I2
I846
tp6844
a(I1
I846
tp6845
a(I2
I846
tp6846
a(I2
I846
tp6847
a(I2
I846
tp6848
a(I2
I846
tp6849
a(I2
I846
tp6850
a(I2
I846
tp6851
a(I2
I846
tp6852
a(I2
I847
tp6853
a(I2
I846
tp6854
a(I2
I846
tp6855
a(I2
I846
tp6856
a(I2
I846
tp6857
a(I2
I846
tp6858
a(I2
I846
tp6859
a(I2
I846
tp6860
a(I2
I846
tp6861
a(I2
I846
tp6862
a(I2
I846
tp6863
a(I2
I846
tp6864
a(I2
I846
tp6865
a(I2
I846
tp6866
a(I1
I846
tp6867
a(I2
I846
tp6868
a(I2
I846
tp6869
a(I2
I847
tp6870
a(I2
I847
tp6871
a(I2
I846
tp6872
a(I2
I846
tp6873
a(I3
I846
tp6874
a(I2
I846
tp6875
a(I2
I846
tp6876
a(I2
I846
tp6877
a(I3
I846
tp6878
a(I2
I846
tp6879
a(I2
I846
tp6880
a(I2
I846
tp6881
a(I2
I846
tp6882
a(I2
I846
tp6883
a(I2
I846
tp6884
a(I2
I846
tp6885
a(I2
I846
tp6886
a(I2
I846
tp6887
a(I2
I846
tp6888
a(I2
I847
tp6889
a(I2
I845
tp6890
a(I2
I846
tp6891
a(I2
I846
tp6892
a(I2
I846
tp6893
a(I2
I846
tp6894
a(I2
I846
tp6895
a(I2
I846
tp6896
a(I2
I846
tp6897
a(I2
I846
tp6898
a(I2
I846
tp6899
a(I2
I846
tp6900
a(I2
I846
tp6901
a(I2
I846
tp6902
a(I2
I846
tp6903
a(I2
I845
tp6904
a(I2
I846
tp6905
a(I2
I846
tp6906
a(I2
I846
tp6907
a(I2
I846
tp6908
a(I2
I846
tp6909
a(I2
I846
tp6910
a(I2
I847
tp6911
a(I2
I846
tp6912
a(I2
I846
tp6913
a(I2
I846
tp6914
a(I2
I846
tp6915
a(I2
I846
tp6916
a(I2
I846
tp6917
a(I2
I846
tp6918
a(I2
I846
tp6919
a(I2
I846
tp6920
a(I2
I846
tp6921
a(I2
I846
tp6922
a(I2
I846
tp6923
a(I2
I846
tp6924
a(I2
I847
tp6925
a(I2
I846
tp6926
a(I2
I846
tp6927
a(I2
I846
tp6928
a(I2
I846
tp6929
a(I2
I847
tp6930
a(I2
I846
tp6931
a(I2
I846
tp6932
a(I2
I846
tp6933
a(I2
I846
tp6934
a(I2
I847
tp6935
a(I2
I846
tp6936
a(I2
I846
tp6937
a(I2
I846
tp6938
a(I2
I846
tp6939
a(I2
I757
tp6940
a(I2
I846
tp6941
a(I2
I846
tp6942
a(I2
I847
tp6943
a(I2
I846
tp6944
a(I2
I846
tp6945
a(I2
I846
tp6946
a(I2
I847
tp6947
a(I2
I847
tp6948
a(I2
I846
tp6949
a(I2
I846
tp6950
a(I2
I846
tp6951
a(I2
I846
tp6952
a(I2
I846
tp6953
a(I2
I846
tp6954
a(I2
I846
tp6955
a(I1
I846
tp6956
a(I2
I846
tp6957
a(I2
I846
tp6958
a(I2
I846
tp6959
a(I2
I846
tp6960
a(I2
I846
tp6961
a(I2
I846
tp6962
a(I2
I846
tp6963
a(I2
I846
tp6964
a(I2
I846
tp6965
a(I2
I846
tp6966
a(I2
I846
tp6967
a(I2
I847
tp6968
a(I2
I846
tp6969
a(I2
I846
tp6970
a(I2
I846
tp6971
a(I2
I845
tp6972
a(I2
I846
tp6973
a(I2
I847
tp6974
a(I2
I846
tp6975
a(I2
I846
tp6976
a(I2
I846
tp6977
a(I2
I846
tp6978
a(I2
I846
tp6979
a(I2
I846
tp6980
a(I2
I846
tp6981
a(I2
I846
tp6982
a(I2
I846
tp6983
a(I2
I846
tp6984
a(I2
I846
tp6985
a(I2
I846
tp6986
a(I2
I846
tp6987
a(I2
I847
tp6988
a(I2
I846
tp6989
a(I2
I846
tp6990
a(I2
I846
tp6991
a(I2
I846
tp6992
a(I2
I846
tp6993
a(I2
I846
tp6994
a(I2
I846
tp6995
a(I2
I846
tp6996
a(I2
I846
tp6997
a(I2
I846
tp6998
a(I2
I846
tp6999
a(I2
I846
tp7000
a(I2
I846
tp7001
a(I2
I846
tp7002
a(I2
I846
tp7003
a(I2
I846
tp7004
a(I2
I846
tp7005
a(I2
I846
tp7006
a(I2
I846
tp7007
a(I2
I846
tp7008
a(I2
I846
tp7009
a(I2
I846
tp7010
a(I2
I846
tp7011
a(I2
I846
tp7012
a(I2
I846
tp7013
a(I2
I846
tp7014
a(I2
I846
tp7015
asS'UP-RIGHT'
p7016
(lp7017
(I1
I846
tp7018
a(I2
I846
tp7019
a(I2
I846
tp7020
a(I2
I846
tp7021
a(I2
I847
tp7022
a(I3
I846
tp7023
a(I2
I846
tp7024
a(I2
I846
tp7025
a(I2
I846
tp7026
a(I2
I846
tp7027
a(I2
I846
tp7028
a(I2
I846
tp7029
a(I3
I846
tp7030
a(I2
I846
tp7031
a(I2
I847
tp7032
a(I2
I846
tp7033
a(I2
I846
tp7034
a(I2
I846
tp7035
a(I2
I846
tp7036
a(I2
I846
tp7037
a(I2
I846
tp7038
a(I2
I845
tp7039
a(I2
I846
tp7040
a(I2
I846
tp7041
a(I2
I846
tp7042
a(I2
I846
tp7043
a(I2
I846
tp7044
a(I2
I846
tp7045
a(I2
I846
tp7046
a(I2
I847
tp7047
a(I2
I846
tp7048
a(I2
I846
tp7049
a(I2
I846
tp7050
a(I2
I847
tp7051
a(I2
I846
tp7052
a(I2
I846
tp7053
a(I2
I846
tp7054
a(I2
I846
tp7055
a(I2
I846
tp7056
a(I2
I846
tp7057
a(I2
I846
tp7058
a(I2
I846
tp7059
a(I2
I846
tp7060
a(I2
I846
tp7061
a(I2
I846
tp7062
a(I2
I846
tp7063
a(I2
I846
tp7064
a(I2
I846
tp7065
a(I2
I846
tp7066
a(I2
I846
tp7067
a(I2
I846
tp7068
a(I2
I846
tp7069
a(I2
I846
tp7070
a(I2
I846
tp7071
a(I2
I846
tp7072
a(I2
I846
tp7073
a(I2
I846
tp7074
a(I2
I846
tp7075
a(I2
I846
tp7076
a(I2
I846
tp7077
a(I2
I846
tp7078
a(I2
I846
tp7079
a(I2
I846
tp7080
a(I2
I846
tp7081
a(I2
I846
tp7082
a(I2
I846
tp7083
a(I2
I846
tp7084
a(I2
I846
tp7085
a(I2
I846
tp7086
a(I2
I846
tp7087
a(I3
I846
tp7088
a(I2
I845
tp7089
a(I2
I846
tp7090
a(I2
I846
tp7091
a(I2
I846
tp7092
a(I2
I847
tp7093
a(I2
I846
tp7094
a(I2
I846
tp7095
a(I2
I846
tp7096
a(I2
I846
tp7097
a(I2
I846
tp7098
a(I2
I846
tp7099
a(I2
I846
tp7100
a(I2
I846
tp7101
a(I2
I846
tp7102
a(I2
I846
tp7103
a(I2
I846
tp7104
a(I2
I846
tp7105
a(I2
I846
tp7106
a(I3
I846
tp7107
a(I2
I846
tp7108
a(I2
I846
tp7109
a(I2
I846
tp7110
a(I2
I847
tp7111
a(I3
I846
tp7112
a(I2
I846
tp7113
a(I2
I846
tp7114
a(I2
I846
tp7115
a(I2
I846
tp7116
a(I2
I847
tp7117
a(I2
I846
tp7118
a(I2
I846
tp7119
a(I2
I846
tp7120
a(I2
I847
tp7121
a(I2
I846
tp7122
a(I2
I846
tp7123
a(I2
I846
tp7124
a(I2
I846
tp7125
a(I2
I846
tp7126
a(I2
I846
tp7127
a(I2
I846
tp7128
a(I2
I846
tp7129
a(I2
I846
tp7130
a(I2
I846
tp7131
a(I2
I846
tp7132
a(I2
I846
tp7133
a(I2
I846
tp7134
a(I2
I846
tp7135
a(I2
I846
tp7136
a(I2
I846
tp7137
a(I2
I846
tp7138
a(I2
I846
tp7139
a(I2
I846
tp7140
a(I2
I846
tp7141
a(I2
I846
tp7142
a(I2
I846
tp7143
a(I2
I846
tp7144
a(I2
I846
tp7145
a(I2
I846
tp7146
a(I2
I846
tp7147
a(I2
I846
tp7148
a(I2
I846
tp7149
a(I2
I846
tp7150
a(I2
I846
tp7151
a(I2
I847
tp7152
a(I2
I846
tp7153
a(I2
I846
tp7154
a(I2
I846
tp7155
a(I2
I846
tp7156
a(I2
I846
tp7157
a(I2
I846
tp7158
a(I2
I846
tp7159
a(I2
I846
tp7160
a(I2
I846
tp7161
a(I2
I846
tp7162
a(I2
I847
tp7163
a(I2
I846
tp7164
a(I2
I846
tp7165
a(I2
I846
tp7166
a(I2
I846
tp7167
a(I2
I846
tp7168
a(I2
I834
tp7169
a(I2
I846
tp7170
a(I2
I847
tp7171
a(I2
I846
tp7172
a(I2
I846
tp7173
a(I2
I846
tp7174
a(I2
I846
tp7175
a(I2
I846
tp7176
a(I3
I846
tp7177
a(I2
I846
tp7178
a(I2
I846
tp7179
a(I2
I846
tp7180
a(I2
I845
tp7181
a(I2
I846
tp7182
a(I2
I846
tp7183
a(I2
I846
tp7184
a(I2
I846
tp7185
a(I2
I846
tp7186
a(I2
I846
tp7187
a(I2
I846
tp7188
a(I2
I846
tp7189
a(I2
I846
tp7190
a(I2
I846
tp7191
a(I2
I846
tp7192
a(I2
I846
tp7193
a(I2
I846
tp7194
a(I2
I846
tp7195
a(I2
I846
tp7196
a(I2
I846
tp7197
a(I2
I846
tp7198
a(I2
I846
tp7199
a(I2
I846
tp7200
a(I1
I846
tp7201
a(I2
I846
tp7202
a(I2
I846
tp7203
a(I2
I846
tp7204
a(I2
I846
tp7205
a(I2
I846
tp7206
a(I2
I846
tp7207
a(I2
I846
tp7208
a(I2
I846
tp7209
a(I2
I846
tp7210
a(I2
I846
tp7211
a(I2
I846
tp7212
a(I2
I846
tp7213
a(I2
I846
tp7214
a(I2
I846
tp7215
a(I2
I846
tp7216
a(I2
I846
tp7217
a(I2
I846
tp7218
a(I2
I846
tp7219
a(I2
I846
tp7220
a(I2
I846
tp7221
a(I2
I846
tp7222
a(I2
I846
tp7223
a(I2
I846
tp7224
a(I1
I846
tp7225
a(I2
I846
tp7226
a(I2
I846
tp7227
a(I2
I846
tp7228
a(I2
I846
tp7229
a(I2
I846
tp7230
a(I2
I846
tp7231
a(I2
I846
tp7232
a(I2
I846
tp7233
a(I2
I847
tp7234
a(I2
I846
tp7235
a(I2
I846
tp7236
a(I2
I847
tp7237
a(I2
I846
tp7238
a(I2
I846
tp7239
a(I2
I846
tp7240
a(I2
I846
tp7241
a(I1
I846
tp7242
a(I2
I847
tp7243
a(I2
I846
tp7244
a(I2
I846
tp7245
a(I2
I846
tp7246
a(I2
I846
tp7247
a(I2
I847
tp7248
a(I3
I846
tp7249
a(I2
I846
tp7250
a(I2
I846
tp7251
a(I2
I846
tp7252
a(I2
I846
tp7253
a(I2
I846
tp7254
a(I2
I846
tp7255
a(I2
I846
tp7256
a(I2
I846
tp7257
a(I2
I846
tp7258
a(I2
I847
tp7259
a(I2
I846
tp7260
a(I2
I846
tp7261
a(I2
I846
tp7262
a(I2
I846
tp7263
a(I2
I846
tp7264
a(I2
I845
tp7265
a(I3
I846
tp7266
a(I2
I846
tp7267
a(I3
I846
tp7268
a(I1
I846
tp7269
a(I2
I847
tp7270
a(I2
I846
tp7271
a(I2
I846
tp7272
a(I2
I846
tp7273
a(I2
I846
tp7274
a(I2
I846
tp7275
a(I2
I846
tp7276
a(I2
I846
tp7277
a(I2
I846
tp7278
a(I2
I846
tp7279
a(I2
I846
tp7280
a(I2
I846
tp7281
a(I2
I846
tp7282
a(I2
I846
tp7283
a(I2
I846
tp7284
a(I2
I846
tp7285
a(I2
I847
tp7286
a(I2
I846
tp7287
a(I2
I846
tp7288
a(I2
I846
tp7289
a(I2
I846
tp7290
a(I2
I846
tp7291
a(I2
I846
tp7292
a(I2
I846
tp7293
a(I2
I845
tp7294
a(I2
I846
tp7295
a(I2
I846
tp7296
a(I2
I847
tp7297
a(I2
I846
tp7298
a(I2
I846
tp7299
a(I2
I846
tp7300
a(I2
I846
tp7301
a(I1
I553
tp7302
a(I2
I846
tp7303
a(I2
I846
tp7304
a(I2
I846
tp7305
a(I2
I846
tp7306
a(I2
I846
tp7307
a(I2
I847
tp7308
a(I2
I846
tp7309
a(I2
I845
tp7310
a(I2
I847
tp7311
a(I2
I846
tp7312
a(I2
I846
tp7313
a(I1
I846
tp7314
a(I2
I846
tp7315
a(I2
I846
tp7316
a(I2
I846
tp7317
a(I2
I846
tp7318
a(I2
I847
tp7319
a(I2
I846
tp7320
a(I2
I846
tp7321
a(I2
I846
tp7322
a(I2
I846
tp7323
a(I2
I846
tp7324
a(I2
I846
tp7325
a(I2
I846
tp7326
a(I2
I846
tp7327
a(I2
I846
tp7328
a(I2
I846
tp7329
a(I2
I847
tp7330
a(I2
I846
tp7331
a(I2
I846
tp7332
a(I2
I845
tp7333
a(I2
I846
tp7334
a(I2
I846
tp7335
a(I2
I846
tp7336
a(I2
I846
tp7337
a(I2
I846
tp7338
a(I2
I846
tp7339
a(I2
I846
tp7340
a(I2
I847
tp7341
a(I2
I846
tp7342
a(I2
I846
tp7343
a(I2
I846
tp7344
a(I2
I846
tp7345
a(I2
I846
tp7346
a(I2
I846
tp7347
a(I2
I846
tp7348
a(I2
I846
tp7349
a(I2
I846
tp7350
a(I2
I846
tp7351
a(I2
I846
tp7352
a(I2
I846
tp7353
a(I2
I846
tp7354
a(I2
I846
tp7355
a(I2
I846
tp7356
a(I2
I846
tp7357
a(I2
I846
tp7358
a(I2
I846
tp7359
a(I2
I846
tp7360
a(I2
I846
tp7361
a(I2
I846
tp7362
a(I2
I846
tp7363
a(I2
I846
tp7364
a(I2
I846
tp7365
a(I2
I846
tp7366
a(I2
I846
tp7367
a(I2
I846
tp7368
a(I2
I846
tp7369
a(I2
I846
tp7370
a(I2
I846
tp7371
a(I2
I846
tp7372
a(I2
I846
tp7373
a(I2
I846
tp7374
a(I2
I846
tp7375
a(I2
I846
tp7376
a(I2
I846
tp7377
a(I2
I846
tp7378
a(I2
I846
tp7379
a(I2
I846
tp7380
a(I2
I846
tp7381
a(I2
I846
tp7382
a(I2
I846
tp7383
a(I3
I846
tp7384
a(I2
I846
tp7385
a(I2
I846
tp7386
a(I2
I846
tp7387
a(I2
I846
tp7388
a(I2
I846
tp7389
a(I2
I846
tp7390
a(I2
I846
tp7391
a(I2
I846
tp7392
a(I2
I846
tp7393
a(I2
I846
tp7394
a(I2
I847
tp7395
a(I2
I846
tp7396
a(I2
I846
tp7397
a(I2
I846
tp7398
a(I2
I846
tp7399
a(I2
I846
tp7400
a(I2
I846
tp7401
a(I2
I846
tp7402
a(I2
I846
tp7403
a(I2
I846
tp7404
a(I2
I846
tp7405
a(I2
I846
tp7406
a(I2
I846
tp7407
a(I2
I846
tp7408
a(I2
I847
tp7409
a(I2
I846
tp7410
a(I2
I846
tp7411
a(I2
I847
tp7412
a(I2
I846
tp7413
a(I2
I846
tp7414
a(I2
I846
tp7415
a(I2
I846
tp7416
a(I2
I846
tp7417
a(I2
I846
tp7418
a(I2
I846
tp7419
a(I2
I846
tp7420
a(I2
I846
tp7421
a(I2
I846
tp7422
a(I2
I846
tp7423
a(I2
I847
tp7424
a(I2
I846
tp7425
a(I2
I846
tp7426
a(I2
I846
tp7427
a(I2
I846
tp7428
a(I2
I846
tp7429
a(I2
I846
tp7430
a(I2
I846
tp7431
a(I2
I846
tp7432
a(I2
I846
tp7433
a(I2
I846
tp7434
a(I2
I846
tp7435
a(I2
I846
tp7436
a(I2
I845
tp7437
a(I2
I846
tp7438
a(I2
I846
tp7439
a(I2
I846
tp7440
a(I2
I846
tp7441
a(I2
I846
tp7442
a(I2
I846
tp7443
a(I2
I846
tp7444
a(I2
I846
tp7445
a(I2
I846
tp7446
a(I2
I846
tp7447
a(I2
I846
tp7448
a(I2
I846
tp7449
a(I2
I847
tp7450
a(I2
I846
tp7451
a(I2
I846
tp7452
a(I2
I846
tp7453
a(I2
I846
tp7454
a(I2
I846
tp7455
a(I2
I846
tp7456
a(I2
I846
tp7457
a(I2
I847
tp7458
a(I2
I846
tp7459
a(I2
I846
tp7460
a(I3
I846
tp7461
a(I2
I846
tp7462
a(I2
I846
tp7463
a(I2
I846
tp7464
a(I2
I846
tp7465
a(I2
I846
tp7466
a(I2
I846
tp7467
a(I2
I826
tp7468
a(I2
I846
tp7469
a(I2
I846
tp7470
a(I2
I846
tp7471
a(I2
I830
tp7472
a(I2
I846
tp7473
a(I2
I846
tp7474
a(I2
I846
tp7475
a(I2
I846
tp7476
a(I2
I846
tp7477
a(I2
I846
tp7478
a(I2
I846
tp7479
a(I2
I846
tp7480
a(I2
I846
tp7481
a(I2
I846
tp7482
a(I2
I846
tp7483
a(I2
I847
tp7484
a(I2
I846
tp7485
a(I2
I846
tp7486
a(I2
I846
tp7487
a(I2
I846
tp7488
a(I3
I847
tp7489
a(I2
I846
tp7490
a(I2
I846
tp7491
a(I2
I846
tp7492
a(I2
I846
tp7493
a(I2
I846
tp7494
a(I2
I846
tp7495
a(I2
I846
tp7496
a(I3
I846
tp7497
a(I2
I846
tp7498
a(I2
I846
tp7499
a(I2
I846
tp7500
a(I2
I847
tp7501
a(I2
I846
tp7502
a(I2
I846
tp7503
a(I2
I846
tp7504
a(I2
I846
tp7505
a(I2
I846
tp7506
a(I2
I846
tp7507
a(I2
I846
tp7508
a(I2
I846
tp7509
a(I2
I846
tp7510
a(I2
I846
tp7511
a(I2
I846
tp7512
a(I2
I846
tp7513
a(I2
I846
tp7514
a(I2
I846
tp7515
a(I2
I845
tp7516
a(I2
I846
tp7517
a(I2
I846
tp7518
a(I2
I846
tp7519
a(I2
I846
tp7520
a(I2
I846
tp7521
a(I2
I846
tp7522
a(I2
I846
tp7523
a(I2
I846
tp7524
a(I2
I847
tp7525
a(I2
I846
tp7526
a(I2
I846
tp7527
a(I2
I846
tp7528
a(I2
I846
tp7529
a(I2
I846
tp7530
a(I2
I846
tp7531
a(I2
I846
tp7532
a(I2
I846
tp7533
a(I2
I847
tp7534
a(I2
I846
tp7535
a(I2
I847
tp7536
a(I2
I846
tp7537
a(I2
I846
tp7538
a(I2
I846
tp7539
a(I2
I846
tp7540
a(I2
I846
tp7541
a(I2
I846
tp7542
a(I2
I846
tp7543
a(I2
I846
tp7544
a(I2
I846
tp7545
a(I2
I846
tp7546
a(I2
I846
tp7547
a(I2
I846
tp7548
a(I2
I846
tp7549
a(I2
I846
tp7550
a(I2
I846
tp7551
a(I2
I846
tp7552
a(I2
I846
tp7553
a(I2
I846
tp7554
a(I2
I846
tp7555
a(I2
I846
tp7556
a(I2
I846
tp7557
a(I2
I846
tp7558
a(I2
I847
tp7559
a(I2
I846
tp7560
a(I2
I846
tp7561
a(I2
I846
tp7562
a(I2
I846
tp7563
a(I2
I846
tp7564
a(I2
I846
tp7565
a(I2
I847
tp7566
a(I2
I846
tp7567
a(I2
I846
tp7568
a(I2
I846
tp7569
a(I2
I846
tp7570
a(I2
I846
tp7571
a(I2
I846
tp7572
a(I2
I846
tp7573
a(I1
I846
tp7574
a(I2
I846
tp7575
a(I2
I846
tp7576
a(I2
I846
tp7577
a(I2
I846
tp7578
a(I2
I846
tp7579
a(I2
I846
tp7580
a(I2
I846
tp7581
a(I2
I846
tp7582
a(I2
I846
tp7583
a(I2
I846
tp7584
a(I2
I846
tp7585
a(I2
I846
tp7586
a(I2
I846
tp7587
a(I2
I846
tp7588
a(I2
I846
tp7589
a(I2
I846
tp7590
a(I2
I847
tp7591
a(I2
I846
tp7592
a(I2
I846
tp7593
a(I2
I846
tp7594
a(I2
I846
tp7595
a(I2
I846
tp7596
a(I2
I847
tp7597
a(I2
I846
tp7598
a(I2
I846
tp7599
a(I2
I845
tp7600
a(I2
I846
tp7601
a(I2
I847
tp7602
a(I2
I846
tp7603
a(I2
I846
tp7604
a(I2
I847
tp7605
a(I2
I846
tp7606
a(I2
I846
tp7607
a(I2
I846
tp7608
a(I2
I846
tp7609
a(I2
I846
tp7610
a(I2
I846
tp7611
a(I2
I846
tp7612
a(I2
I846
tp7613
a(I2
I846
tp7614
a(I2
I846
tp7615
a(I2
I847
tp7616
a(I2
I846
tp7617
a(I2
I846
tp7618
a(I2
I846
tp7619
a(I2
I846
tp7620
a(I2
I846
tp7621
a(I3
I846
tp7622
a(I2
I846
tp7623
a(I2
I846
tp7624
a(I2
I846
tp7625
a(I2
I846
tp7626
a(I2
I846
tp7627
a(I2
I846
tp7628
a(I2
I846
tp7629
a(I2
I846
tp7630
a(I2
I846
tp7631
a(I2
I846
tp7632
a(I2
I846
tp7633
a(I2
I846
tp7634
a(I2
I847
tp7635
a(I2
I846
tp7636
a(I2
I845
tp7637
a(I2
I845
tp7638
a(I3
I846
tp7639
a(I2
I847
tp7640
a(I2
I846
tp7641
a(I2
I846
tp7642
a(I2
I846
tp7643
a(I2
I846
tp7644
a(I2
I846
tp7645
a(I2
I846
tp7646
a(I2
I845
tp7647
a(I2
I846
tp7648
a(I2
I846
tp7649
a(I2
I846
tp7650
a(I2
I846
tp7651
a(I2
I846
tp7652
a(I2
I845
tp7653
a(I2
I846
tp7654
a(I2
I846
tp7655
a(I2
I847
tp7656
a(I2
I846
tp7657
a(I2
I846
tp7658
a(I2
I846
tp7659
a(I2
I846
tp7660
a(I2
I846
tp7661
a(I2
I846
tp7662
a(I3
I846
tp7663
a(I2
I846
tp7664
a(I2
I846
tp7665
a(I2
I846
tp7666
a(I2
I845
tp7667
a(I2
I846
tp7668
a(I2
I846
tp7669
a(I1
I846
tp7670
a(I2
I846
tp7671
a(I2
I846
tp7672
a(I2
I846
tp7673
a(I2
I846
tp7674
a(I2
I846
tp7675
a(I1
I846
tp7676
a(I2
I846
tp7677
a(I2
I846
tp7678
a(I2
I846
tp7679
a(I2
I846
tp7680
a(I2
I846
tp7681
a(I3
I846
tp7682
a(I2
I846
tp7683
a(I3
I846
tp7684
a(I2
I846
tp7685
a(I2
I846
tp7686
a(I2
I846
tp7687
a(I2
I845
tp7688
a(I2
I846
tp7689
a(I2
I846
tp7690
a(I2
I847
tp7691
a(I2
I846
tp7692
a(I2
I846
tp7693
a(I2
I846
tp7694
a(I2
I847
tp7695
a(I2
I846
tp7696
a(I2
I846
tp7697
a(I2
I847
tp7698
a(I2
I846
tp7699
a(I2
I846
tp7700
a(I2
I846
tp7701
a(I2
I846
tp7702
a(I2
I846
tp7703
a(I2
I846
tp7704
a(I2
I846
tp7705
a(I2
I846
tp7706
a(I2
I846
tp7707
a(I2
I846
tp7708
a(I2
I846
tp7709
a(I2
I846
tp7710
a(I2
I846
tp7711
a(I2
I846
tp7712
a(I2
I846
tp7713
a(I2
I846
tp7714
a(I2
I846
tp7715
a(I2
I846
tp7716
a(I2
I846
tp7717
a(I2
I846
tp7718
a(I2
I846
tp7719
a(I2
I846
tp7720
a(I2
I846
tp7721
a(I2
I846
tp7722
a(I2
I846
tp7723
a(I2
I846
tp7724
a(I2
I846
tp7725
a(I2
I846
tp7726
a(I2
I846
tp7727
a(I2
I846
tp7728
a(I2
I846
tp7729
a(I2
I846
tp7730
a(I2
I846
tp7731
a(I2
I846
tp7732
a(I2
I846
tp7733
a(I2
I846
tp7734
a(I2
I846
tp7735
a(I2
I846
tp7736
a(I2
I846
tp7737
a(I2
I846
tp7738
a(I2
I846
tp7739
a(I2
I846
tp7740
a(I2
I846
tp7741
a(I2
I846
tp7742
a(I2
I846
tp7743
a(I2
I846
tp7744
a(I2
I846
tp7745
a(I3
I846
tp7746
a(I2
I847
tp7747
a(I2
I846
tp7748
a(I2
I846
tp7749
a(I2
I846
tp7750
a(I2
I846
tp7751
a(I2
I846
tp7752
a(I2
I846
tp7753
a(I2
I846
tp7754
a(I2
I846
tp7755
a(I2
I846
tp7756
a(I2
I846
tp7757
a(I2
I846
tp7758
a(I2
I846
tp7759
a(I2
I846
tp7760
a(I3
I846
tp7761
a(I2
I846
tp7762
a(I2
I846
tp7763
a(I2
I846
tp7764
a(I2
I846
tp7765
a(I2
I846
tp7766
a(I2
I846
tp7767
a(I2
I847
tp7768
a(I3
I846
tp7769
a(I2
I846
tp7770
a(I2
I846
tp7771
a(I2
I846
tp7772
a(I2
I846
tp7773
a(I2
I846
tp7774
a(I2
I846
tp7775
a(I1
I846
tp7776
a(I2
I846
tp7777
a(I2
I846
tp7778
a(I2
I846
tp7779
a(I2
I846
tp7780
a(I3
I845
tp7781
a(I2
I846
tp7782
a(I2
I846
tp7783
a(I2
I846
tp7784
a(I2
I846
tp7785
a(I2
I846
tp7786
a(I2
I846
tp7787
a(I2
I846
tp7788
a(I1
I846
tp7789
a(I2
I846
tp7790
a(I2
I846
tp7791
a(I2
I846
tp7792
a(I2
I847
tp7793
a(I2
I847
tp7794
a(I2
I846
tp7795
a(I2
I846
tp7796
a(I2
I846
tp7797
a(I2
I846
tp7798
a(I2
I847
tp7799
a(I2
I846
tp7800
a(I2
I845
tp7801
a(I2
I846
tp7802
a(I2
I846
tp7803
a(I2
I847
tp7804
a(I3
I846
tp7805
a(I2
I846
tp7806
a(I2
I846
tp7807
a(I2
I846
tp7808
a(I1
I847
tp7809
a(I2
I846
tp7810
a(I2
I846
tp7811
a(I2
I847
tp7812
a(I2
I846
tp7813
a(I2
I846
tp7814
a(I2
I846
tp7815
a(I2
I846
tp7816
a(I2
I846
tp7817
a(I2
I846
tp7818
a(I2
I846
tp7819
a(I2
I846
tp7820
a(I2
I846
tp7821
a(I2
I846
tp7822
a(I1
I846
tp7823
a(I2
I846
tp7824
a(I2
I846
tp7825
a(I2
I846
tp7826
a(I2
I846
tp7827
a(I2
I846
tp7828
a(I2
I846
tp7829
a(I2
I846
tp7830
a(I2
I846
tp7831
a(I2
I846
tp7832
a(I2
I845
tp7833
a(I3
I846
tp7834
a(I2
I846
tp7835
a(I2
I846
tp7836
a(I2
I846
tp7837
a(I2
I846
tp7838
a(I2
I846
tp7839
a(I2
I846
tp7840
a(I2
I846
tp7841
a(I2
I846
tp7842
a(I2
I845
tp7843
a(I2
I846
tp7844
a(I2
I846
tp7845
a(I2
I846
tp7846
a(I2
I846
tp7847
a(I2
I846
tp7848
a(I2
I846
tp7849
a(I2
I846
tp7850
a(I2
I846
tp7851
a(I2
I846
tp7852
a(I2
I846
tp7853
a(I2
I846
tp7854
a(I2
I846
tp7855
a(I2
I847
tp7856
a(I2
I846
tp7857
a(I2
I846
tp7858
a(I2
I846
tp7859
a(I2
I846
tp7860
a(I2
I846
tp7861
a(I2
I846
tp7862
a(I2
I846
tp7863
a(I2
I846
tp7864
a(I2
I846
tp7865
a(I2
I846
tp7866
a(I2
I846
tp7867
a(I2
I846
tp7868
a(I2
I846
tp7869
a(I2
I847
tp7870
a(I2
I845
tp7871
a(I2
I846
tp7872
a(I2
I846
tp7873
a(I2
I847
tp7874
a(I2
I846
tp7875
a(I2
I846
tp7876
a(I2
I846
tp7877
a(I2
I846
tp7878
a(I2
I846
tp7879
a(I2
I846
tp7880
a(I2
I846
tp7881
a(I2
I846
tp7882
a(I2
I846
tp7883
a(I2
I846
tp7884
a(I2
I846
tp7885
a(I2
I846
tp7886
a(I2
I846
tp7887
a(I2
I846
tp7888
a(I2
I846
tp7889
a(I2
I846
tp7890
a(I2
I846
tp7891
a(I2
I846
tp7892
a(I2
I846
tp7893
a(I2
I847
tp7894
a(I2
I846
tp7895
a(I2
I846
tp7896
a(I2
I846
tp7897
a(I2
I846
tp7898
a(I2
I846
tp7899
a(I2
I846
tp7900
a(I1
I846
tp7901
a(I2
I846
tp7902
a(I2
I846
tp7903
a(I2
I846
tp7904
a(I2
I847
tp7905
a(I3
I846
tp7906
a(I2
I846
tp7907
a(I2
I846
tp7908
a(I2
I846
tp7909
a(I2
I846
tp7910
a(I2
I846
tp7911
a(I2
I846
tp7912
a(I2
I846
tp7913
a(I2
I846
tp7914
a(I2
I846
tp7915
a(I2
I846
tp7916
a(I2
I841
tp7917
a(I2
I843
tp7918
a(I2
I846
tp7919
a(I2
I846
tp7920
a(I2
I846
tp7921
a(I2
I846
tp7922
a(I2
I846
tp7923
a(I2
I846
tp7924
a(I2
I846
tp7925
a(I2
I846
tp7926
a(I2
I846
tp7927
a(I2
I846
tp7928
a(I2
I846
tp7929
a(I2
I846
tp7930
a(I2
I846
tp7931
a(I2
I846
tp7932
a(I2
I846
tp7933
a(I2
I846
tp7934
a(I2
I846
tp7935
a(I2
I846
tp7936
a(I2
I846
tp7937
a(I2
I846
tp7938
a(I2
I846
tp7939
a(I2
I846
tp7940
a(I2
I846
tp7941
a(I2
I846
tp7942
a(I2
I847
tp7943
a(I2
I846
tp7944
a(I2
I846
tp7945
a(I2
I846
tp7946
a(I1
I846
tp7947
a(I2
I846
tp7948
a(I2
I846
tp7949
a(I2
I846
tp7950
a(I2
I846
tp7951
a(I2
I846
tp7952
a(I2
I846
tp7953
a(I2
I846
tp7954
a(I2
I846
tp7955
a(I2
I846
tp7956
a(I2
I846
tp7957
a(I2
I846
tp7958
a(I2
I846
tp7959
a(I2
I846
tp7960
a(I2
I846
tp7961
a(I2
I846
tp7962
a(I2
I846
tp7963
a(I2
I846
tp7964
a(I2
I847
tp7965
a(I2
I846
tp7966
a(I2
I846
tp7967
a(I2
I846
tp7968
a(I2
I846
tp7969
a(I1
I847
tp7970
a(I2
I846
tp7971
a(I2
I846
tp7972
a(I2
I846
tp7973
a(I2
I846
tp7974
a(I2
I846
tp7975
a(I2
I846
tp7976
a(I2
I846
tp7977
a(I2
I846
tp7978
a(I2
I846
tp7979
a(I2
I846
tp7980
a(I2
I846
tp7981
a(I2
I846
tp7982
a(I2
I846
tp7983
a(I2
I846
tp7984
a(I2
I846
tp7985
a(I2
I846
tp7986
a(I2
I846
tp7987
a(I2
I846
tp7988
a(I2
I846
tp7989
a(I2
I846
tp7990
a(I2
I846
tp7991
a(I2
I847
tp7992
a(I2
I846
tp7993
a(I2
I846
tp7994
a(I2
I847
tp7995
a(I2
I846
tp7996
a(I2
I846
tp7997
a(I2
I846
tp7998
a(I2
I846
tp7999
a(I2
I846
tp8000
a(I2
I846
tp8001
a(I2
I846
tp8002
a(I2
I846
tp8003
a(I2
I845
tp8004
a(I2
I846
tp8005
a(I2
I846
tp8006
a(I2
I846
tp8007
a(I2
I846
tp8008
a(I2
I846
tp8009
a(I2
I846
tp8010
a(I2
I846
tp8011
a(I3
I846
tp8012
a(I2
I846
tp8013
a(I2
I846
tp8014
a(I2
I846
tp8015
a(I2
I846
tp8016
a(I2
I846
tp8017
asS'BLINK'
p8018
(lp8019
(I2
I846
tp8020
a(I2
I846
tp8021
a(I2
I846
tp8022
a(I2
I846
tp8023
a(I2
I847
tp8024
a(I2
I846
tp8025
a(I1
I846
tp8026
a(I2
I846
tp8027
a(I2
I846
tp8028
a(I2
I847
tp8029
a(I2
I845
tp8030
a(I2
I845
tp8031
a(I2
I846
tp8032
a(I2
I846
tp8033
a(I2
I846
tp8034
a(I2
I846
tp8035
a(I2
I846
tp8036
a(I2
I846
tp8037
a(I2
I847
tp8038
a(I2
I846
tp8039
a(I2
I846
tp8040
a(I2
I846
tp8041
a(I3
I845
tp8042
a(I2
I846
tp8043
a(I3
I846
tp8044
a(I2
I845
tp8045
a(I2
I846
tp8046
a(I2
I846
tp8047
a(I2
I846
tp8048
a(I2
I846
tp8049
a(I1
I846
tp8050
a(I2
I846
tp8051
a(I2
I846
tp8052
a(I2
I846
tp8053
a(I2
I846
tp8054
a(I2
I846
tp8055
a(I2
I846
tp8056
a(I2
I847
tp8057
a(I2
I846
tp8058
a(I2
I846
tp8059
a(I2
I847
tp8060
a(I2
I846
tp8061
a(I2
I846
tp8062
a(I2
I846
tp8063
a(I2
I846
tp8064
a(I2
I847
tp8065
a(I2
I846
tp8066
a(I2
I846
tp8067
a(I2
I847
tp8068
a(I2
I846
tp8069
a(I2
I846
tp8070
a(I2
I847
tp8071
a(I2
I846
tp8072
a(I2
I846
tp8073
a(I3
I846
tp8074
a(I2
I846
tp8075
a(I2
I846
tp8076
a(I2
I846
tp8077
a(I2
I846
tp8078
a(I2
I846
tp8079
a(I2
I846
tp8080
a(I2
I846
tp8081
a(I2
I846
tp8082
a(I2
I846
tp8083
a(I2
I846
tp8084
a(I2
I845
tp8085
a(I2
I846
tp8086
a(I2
I846
tp8087
a(I2
I846
tp8088
a(I2
I846
tp8089
a(I2
I846
tp8090
a(I2
I846
tp8091
a(I2
I846
tp8092
a(I2
I846
tp8093
a(I2
I846
tp8094
a(I2
I846
tp8095
a(I2
I846
tp8096
a(I2
I846
tp8097
a(I2
I846
tp8098
a(I2
I846
tp8099
a(I2
I846
tp8100
a(I2
I846
tp8101
a(I2
I846
tp8102
a(I2
I846
tp8103
a(I2
I846
tp8104
a(I2
I846
tp8105
a(I2
I846
tp8106
a(I2
I846
tp8107
a(I2
I846
tp8108
a(I2
I845
tp8109
a(I2
I846
tp8110
a(I2
I846
tp8111
a(I2
I846
tp8112
a(I2
I846
tp8113
a(I2
I846
tp8114
a(I2
I846
tp8115
a(I2
I846
tp8116
a(I2
I846
tp8117
a(I2
I846
tp8118
a(I2
I846
tp8119
a(I2
I846
tp8120
a(I2
I846
tp8121
a(I2
I846
tp8122
a(I2
I846
tp8123
a(I2
I846
tp8124
a(I2
I847
tp8125
a(I2
I846
tp8126
a(I2
I846
tp8127
a(I2
I846
tp8128
a(I2
I846
tp8129
a(I2
I846
tp8130
a(I2
I846
tp8131
a(I2
I846
tp8132
a(I2
I846
tp8133
a(I2
I846
tp8134
a(I2
I846
tp8135
a(I2
I846
tp8136
a(I2
I846
tp8137
a(I2
I846
tp8138
a(I2
I846
tp8139
a(I2
I846
tp8140
a(I2
I846
tp8141
a(I2
I846
tp8142
a(I2
I846
tp8143
a(I2
I846
tp8144
a(I2
I846
tp8145
a(I2
I846
tp8146
a(I2
I846
tp8147
a(I2
I846
tp8148
a(I2
I846
tp8149
a(I2
I846
tp8150
a(I1
I846
tp8151
a(I2
I847
tp8152
a(I2
I846
tp8153
a(I2
I846
tp8154
a(I2
I847
tp8155
a(I2
I846
tp8156
a(I2
I846
tp8157
a(I2
I846
tp8158
a(I2
I846
tp8159
a(I2
I846
tp8160
a(I2
I847
tp8161
a(I2
I846
tp8162
a(I2
I846
tp8163
a(I2
I846
tp8164
a(I2
I846
tp8165
a(I2
I846
tp8166
a(I2
I846
tp8167
a(I2
I846
tp8168
a(I2
I846
tp8169
a(I2
I846
tp8170
a(I2
I846
tp8171
a(I2
I847
tp8172
a(I2
I846
tp8173
a(I2
I846
tp8174
a(I2
I846
tp8175
a(I2
I846
tp8176
a(I2
I846
tp8177
a(I2
I846
tp8178
a(I2
I846
tp8179
a(I2
I846
tp8180
a(I2
I846
tp8181
a(I2
I846
tp8182
a(I2
I846
tp8183
a(I2
I846
tp8184
a(I2
I846
tp8185
a(I2
I846
tp8186
a(I2
I846
tp8187
a(I2
I846
tp8188
a(I2
I846
tp8189
a(I2
I846
tp8190
a(I2
I846
tp8191
a(I2
I846
tp8192
a(I2
I846
tp8193
a(I2
I846
tp8194
a(I2
I847
tp8195
a(I2
I846
tp8196
a(I2
I789
tp8197
a(I2
I845
tp8198
a(I2
I846
tp8199
a(I2
I846
tp8200
a(I2
I846
tp8201
a(I2
I846
tp8202
a(I2
I846
tp8203
a(I2
I846
tp8204
a(I2
I846
tp8205
a(I2
I847
tp8206
a(I2
I846
tp8207
a(I2
I845
tp8208
a(I2
I846
tp8209
a(I2
I846
tp8210
a(I2
I846
tp8211
a(I2
I846
tp8212
a(I2
I846
tp8213
a(I2
I846
tp8214
a(I2
I846
tp8215
a(I2
I846
tp8216
a(I2
I846
tp8217
a(I2
I846
tp8218
a(I2
I846
tp8219
a(I2
I846
tp8220
a(I2
I846
tp8221
a(I2
I846
tp8222
a(I2
I846
tp8223
a(I2
I846
tp8224
a(I2
I847
tp8225
a(I2
I846
tp8226
a(I2
I846
tp8227
a(I2
I846
tp8228
a(I2
I846
tp8229
a(I2
I846
tp8230
a(I2
I846
tp8231
a(I2
I847
tp8232
a(I1
I846
tp8233
a(I2
I846
tp8234
a(I2
I846
tp8235
a(I2
I846
tp8236
a(I2
I846
tp8237
a(I2
I846
tp8238
a(I2
I846
tp8239
a(I2
I846
tp8240
a(I2
I846
tp8241
a(I2
I846
tp8242
a(I2
I846
tp8243
a(I2
I846
tp8244
a(I2
I846
tp8245
a(I2
I846
tp8246
a(I2
I846
tp8247
a(I2
I846
tp8248
a(I2
I847
tp8249
a(I2
I846
tp8250
a(I2
I846
tp8251
a(I2
I846
tp8252
a(I2
I846
tp8253
a(I2
I846
tp8254
a(I2
I846
tp8255
a(I2
I846
tp8256
a(I2
I846
tp8257
a(I2
I846
tp8258
a(I2
I846
tp8259
a(I2
I846
tp8260
a(I2
I846
tp8261
a(I2
I846
tp8262
a(I2
I846
tp8263
a(I2
I847
tp8264
a(I2
I846
tp8265
a(I2
I845
tp8266
a(I2
I846
tp8267
a(I2
I846
tp8268
a(I2
I846
tp8269
a(I2
I846
tp8270
a(I2
I846
tp8271
a(I1
I846
tp8272
a(I2
I846
tp8273
a(I2
I846
tp8274
a(I2
I846
tp8275
a(I2
I846
tp8276
a(I2
I846
tp8277
a(I2
I846
tp8278
a(I2
I846
tp8279
a(I2
I846
tp8280
a(I3
I846
tp8281
a(I2
I846
tp8282
a(I2
I846
tp8283
a(I2
I846
tp8284
a(I2
I846
tp8285
a(I2
I846
tp8286
a(I2
I846
tp8287
a(I2
I846
tp8288
a(I2
I846
tp8289
a(I2
I846
tp8290
a(I2
I846
tp8291
a(I2
I846
tp8292
a(I2
I846
tp8293
a(I2
I846
tp8294
a(I2
I315
tp8295
a(I2
I846
tp8296
a(I2
I846
tp8297
a(I3
I846
tp8298
a(I2
I846
tp8299
a(I2
I846
tp8300
a(I2
I846
tp8301
a(I2
I847
tp8302
a(I2
I846
tp8303
a(I2
I846
tp8304
a(I2
I845
tp8305
a(I2
I846
tp8306
a(I1
I846
tp8307
a(I2
I846
tp8308
a(I2
I846
tp8309
a(I1
I846
tp8310
a(I2
I846
tp8311
a(I1
I846
tp8312
a(I2
I846
tp8313
a(I2
I847
tp8314
a(I2
I846
tp8315
a(I2
I846
tp8316
a(I2
I846
tp8317
a(I2
I846
tp8318
a(I2
I846
tp8319
a(I2
I846
tp8320
a(I2
I846
tp8321
a(I3
I846
tp8322
a(I2
I846
tp8323
a(I2
I847
tp8324
a(I2
I846
tp8325
a(I2
I846
tp8326
a(I2
I846
tp8327
a(I2
I846
tp8328
a(I2
I846
tp8329
a(I2
I846
tp8330
a(I2
I846
tp8331
a(I2
I846
tp8332
a(I2
I846
tp8333
a(I2
I846
tp8334
a(I2
I846
tp8335
a(I2
I846
tp8336
a(I2
I846
tp8337
a(I2
I846
tp8338
a(I2
I846
tp8339
a(I2
I846
tp8340
a(I2
I846
tp8341
a(I2
I846
tp8342
a(I2
I846
tp8343
a(I2
I846
tp8344
a(I2
I846
tp8345
a(I2
I846
tp8346
a(I2
I846
tp8347
a(I2
I846
tp8348
a(I2
I846
tp8349
a(I2
I846
tp8350
a(I2
I846
tp8351
a(I2
I846
tp8352
a(I2
I846
tp8353
a(I2
I846
tp8354
a(I2
I846
tp8355
a(I2
I846
tp8356
a(I2
I846
tp8357
a(I2
I846
tp8358
a(I2
I846
tp8359
a(I2
I846
tp8360
a(I2
I846
tp8361
a(I2
I846
tp8362
a(I1
I846
tp8363
a(I2
I846
tp8364
a(I2
I846
tp8365
a(I2
I846
tp8366
a(I2
I846
tp8367
a(I2
I846
tp8368
a(I2
I845
tp8369
a(I3
I846
tp8370
a(I2
I846
tp8371
a(I2
I846
tp8372
a(I2
I846
tp8373
a(I2
I846
tp8374
a(I2
I846
tp8375
a(I2
I846
tp8376
a(I2
I846
tp8377
a(I2
I846
tp8378
a(I2
I846
tp8379
a(I2
I846
tp8380
a(I2
I846
tp8381
a(I2
I846
tp8382
a(I2
I846
tp8383
a(I2
I847
tp8384
a(I3
I846
tp8385
a(I2
I845
tp8386
a(I2
I846
tp8387
a(I2
I846
tp8388
a(I2
I846
tp8389
a(I2
I847
tp8390
a(I2
I846
tp8391
a(I2
I846
tp8392
a(I2
I846
tp8393
a(I2
I846
tp8394
a(I2
I846
tp8395
a(I2
I846
tp8396
a(I2
I846
tp8397
a(I2
I846
tp8398
a(I2
I846
tp8399
a(I2
I846
tp8400
a(I2
I847
tp8401
a(I2
I846
tp8402
a(I2
I845
tp8403
a(I2
I846
tp8404
a(I2
I846
tp8405
a(I2
I846
tp8406
a(I2
I846
tp8407
a(I2
I846
tp8408
a(I2
I846
tp8409
a(I2
I846
tp8410
a(I2
I846
tp8411
a(I2
I846
tp8412
a(I2
I846
tp8413
a(I2
I846
tp8414
a(I2
I846
tp8415
a(I2
I846
tp8416
a(I3
I846
tp8417
a(I2
I846
tp8418
a(I2
I846
tp8419
a(I2
I846
tp8420
a(I2
I846
tp8421
a(I2
I847
tp8422
a(I2
I846
tp8423
a(I2
I846
tp8424
a(I2
I846
tp8425
a(I2
I846
tp8426
a(I2
I846
tp8427
a(I2
I846
tp8428
a(I2
I846
tp8429
a(I2
I846
tp8430
a(I2
I846
tp8431
a(I2
I846
tp8432
a(I2
I847
tp8433
a(I2
I846
tp8434
a(I2
I846
tp8435
a(I2
I846
tp8436
a(I2
I846
tp8437
a(I2
I846
tp8438
a(I2
I847
tp8439
a(I2
I846
tp8440
a(I2
I846
tp8441
a(I2
I846
tp8442
a(I2
I846
tp8443
a(I2
I847
tp8444
a(I2
I846
tp8445
a(I2
I846
tp8446
a(I3
I846
tp8447
a(I2
I846
tp8448
a(I2
I846
tp8449
a(I2
I846
tp8450
a(I2
I846
tp8451
a(I3
I846
tp8452
a(I2
I846
tp8453
a(I2
I846
tp8454
a(I2
I846
tp8455
a(I2
I846
tp8456
a(I2
I846
tp8457
a(I2
I845
tp8458
a(I2
I846
tp8459
a(I2
I846
tp8460
a(I2
I846
tp8461
a(I2
I845
tp8462
a(I2
I847
tp8463
a(I3
I846
tp8464
a(I2
I846
tp8465
a(I2
I846
tp8466
a(I2
I846
tp8467
a(I2
I846
tp8468
a(I2
I846
tp8469
a(I2
I846
tp8470
a(I2
I846
tp8471
a(I2
I846
tp8472
a(I2
I846
tp8473
a(I2
I846
tp8474
a(I2
I846
tp8475
a(I2
I846
tp8476
a(I2
I846
tp8477
a(I2
I846
tp8478
a(I2
I846
tp8479
a(I2
I846
tp8480
a(I2
I846
tp8481
a(I2
I846
tp8482
a(I2
I846
tp8483
a(I2
I846
tp8484
a(I2
I846
tp8485
a(I2
I846
tp8486
a(I3
I846
tp8487
a(I2
I846
tp8488
a(I2
I846
tp8489
a(I2
I846
tp8490
a(I2
I846
tp8491
a(I2
I846
tp8492
a(I2
I846
tp8493
a(I2
I846
tp8494
a(I2
I846
tp8495
a(I2
I846
tp8496
a(I2
I846
tp8497
a(I2
I846
tp8498
a(I2
I846
tp8499
a(I2
I846
tp8500
a(I2
I846
tp8501
a(I2
I846
tp8502
a(I2
I846
tp8503
a(I2
I846
tp8504
a(I2
I846
tp8505
a(I2
I846
tp8506
a(I2
I846
tp8507
a(I2
I846
tp8508
a(I2
I846
tp8509
a(I2
I846
tp8510
a(I2
I846
tp8511
a(I2
I846
tp8512
a(I2
I846
tp8513
a(I2
I846
tp8514
a(I2
I847
tp8515
a(I2
I846
tp8516
a(I2
I846
tp8517
a(I2
I846
tp8518
a(I2
I846
tp8519
a(I2
I846
tp8520
a(I2
I846
tp8521
a(I2
I846
tp8522
a(I2
I846
tp8523
a(I1
I846
tp8524
a(I2
I846
tp8525
a(I2
I847
tp8526
a(I3
I846
tp8527
a(I2
I828
tp8528
a(I2
I847
tp8529
a(I2
I846
tp8530
a(I2
I846
tp8531
a(I2
I846
tp8532
a(I2
I846
tp8533
a(I2
I846
tp8534
a(I2
I846
tp8535
a(I2
I846
tp8536
a(I2
I846
tp8537
a(I2
I846
tp8538
a(I2
I846
tp8539
a(I2
I846
tp8540
a(I2
I846
tp8541
a(I2
I846
tp8542
a(I2
I846
tp8543
a(I2
I846
tp8544
a(I2
I846
tp8545
a(I2
I846
tp8546
a(I2
I846
tp8547
a(I2
I846
tp8548
a(I2
I846
tp8549
a(I2
I846
tp8550
a(I2
I846
tp8551
a(I2
I846
tp8552
a(I2
I846
tp8553
a(I2
I846
tp8554
a(I2
I846
tp8555
a(I2
I846
tp8556
a(I2
I847
tp8557
a(I2
I846
tp8558
a(I2
I846
tp8559
a(I2
I846
tp8560
a(I2
I846
tp8561
a(I2
I846
tp8562
a(I2
I846
tp8563
a(I2
I846
tp8564
a(I2
I846
tp8565
a(I2
I846
tp8566
a(I1
I846
tp8567
a(I2
I846
tp8568
a(I2
I846
tp8569
a(I2
I846
tp8570
a(I2
I846
tp8571
a(I2
I846
tp8572
a(I2
I846
tp8573
a(I2
I846
tp8574
a(I2
I846
tp8575
a(I2
I846
tp8576
a(I2
I846
tp8577
a(I2
I847
tp8578
a(I2
I846
tp8579
a(I2
I846
tp8580
a(I2
I846
tp8581
a(I2
I846
tp8582
a(I2
I846
tp8583
a(I2
I846
tp8584
a(I2
I846
tp8585
a(I2
I846
tp8586
a(I2
I846
tp8587
a(I2
I846
tp8588
a(I2
I844
tp8589
a(I2
I846
tp8590
a(I2
I846
tp8591
a(I2
I846
tp8592
a(I2
I846
tp8593
a(I2
I846
tp8594
a(I2
I847
tp8595
a(I2
I846
tp8596
a(I2
I846
tp8597
a(I2
I845
tp8598
a(I2
I846
tp8599
a(I2
I846
tp8600
a(I2
I846
tp8601
a(I2
I846
tp8602
a(I2
I846
tp8603
a(I2
I846
tp8604
a(I2
I847
tp8605
a(I2
I847
tp8606
a(I2
I846
tp8607
a(I2
I845
tp8608
a(I2
I846
tp8609
a(I2
I846
tp8610
a(I2
I847
tp8611
a(I2
I846
tp8612
a(I2
I846
tp8613
a(I2
I846
tp8614
a(I2
I846
tp8615
a(I2
I846
tp8616
a(I2
I846
tp8617
a(I1
I846
tp8618
a(I2
I846
tp8619
a(I2
I846
tp8620
a(I2
I846
tp8621
a(I2
I846
tp8622
a(I2
I846
tp8623
a(I2
I846
tp8624
a(I2
I846
tp8625
a(I2
I846
tp8626
a(I2
I846
tp8627
a(I3
I845
tp8628
a(I2
I846
tp8629
a(I2
I846
tp8630
a(I2
I846
tp8631
a(I2
I846
tp8632
a(I2
I846
tp8633
a(I2
I846
tp8634
a(I2
I846
tp8635
a(I2
I846
tp8636
a(I3
I846
tp8637
a(I2
I847
tp8638
a(I2
I846
tp8639
a(I2
I846
tp8640
a(I2
I846
tp8641
a(I2
I846
tp8642
a(I2
I846
tp8643
a(I2
I846
tp8644
a(I2
I846
tp8645
a(I2
I846
tp8646
a(I2
I846
tp8647
a(I2
I846
tp8648
a(I2
I846
tp8649
a(I2
I846
tp8650
a(I2
I846
tp8651
a(I2
I846
tp8652
a(I2
I846
tp8653
a(I2
I846
tp8654
a(I2
I846
tp8655
a(I2
I846
tp8656
a(I2
I846
tp8657
a(I2
I846
tp8658
a(I2
I846
tp8659
a(I2
I846
tp8660
a(I2
I846
tp8661
a(I2
I846
tp8662
a(I2
I846
tp8663
a(I2
I846
tp8664
a(I2
I846
tp8665
a(I3
I845
tp8666
a(I2
I846
tp8667
a(I2
I846
tp8668
a(I2
I846
tp8669
a(I2
I846
tp8670
a(I2
I846
tp8671
a(I2
I846
tp8672
a(I2
I846
tp8673
a(I2
I846
tp8674
a(I2
I846
tp8675
a(I2
I847
tp8676
a(I2
I846
tp8677
a(I2
I846
tp8678
a(I2
I846
tp8679
a(I2
I846
tp8680
a(I2
I846
tp8681
a(I2
I847
tp8682
a(I2
I846
tp8683
a(I1
I846
tp8684
a(I2
I846
tp8685
a(I2
I846
tp8686
a(I2
I846
tp8687
a(I2
I846
tp8688
a(I2
I846
tp8689
a(I2
I847
tp8690
a(I2
I846
tp8691
a(I2
I846
tp8692
a(I2
I846
tp8693
a(I2
I846
tp8694
a(I2
I846
tp8695
a(I2
I846
tp8696
a(I2
I846
tp8697
a(I2
I846
tp8698
a(I2
I846
tp8699
a(I2
I847
tp8700
a(I2
I846
tp8701
a(I2
I846
tp8702
a(I2
I846
tp8703
a(I2
I846
tp8704
a(I2
I846
tp8705
a(I2
I846
tp8706
a(I2
I846
tp8707
a(I2
I847
tp8708
a(I2
I846
tp8709
a(I2
I846
tp8710
a(I2
I847
tp8711
a(I2
I846
tp8712
a(I2
I846
tp8713
a(I2
I846
tp8714
a(I2
I846
tp8715
a(I2
I846
tp8716
a(I2
I846
tp8717
a(I2
I846
tp8718
a(I2
I846
tp8719
a(I2
I846
tp8720
a(I2
I846
tp8721
a(I2
I846
tp8722
a(I2
I846
tp8723
a(I2
I846
tp8724
a(I2
I846
tp8725
a(I2
I846
tp8726
a(I2
I846
tp8727
a(I2
I847
tp8728
a(I2
I846
tp8729
a(I2
I846
tp8730
a(I2
I846
tp8731
a(I2
I846
tp8732
a(I2
I846
tp8733
a(I2
I846
tp8734
a(I2
I846
tp8735
a(I2
I846
tp8736
a(I3
I846
tp8737
a(I2
I846
tp8738
a(I2
I846
tp8739
a(I2
I846
tp8740
a(I2
I846
tp8741
a(I2
I846
tp8742
a(I2
I846
tp8743
a(I2
I846
tp8744
a(I2
I846
tp8745
a(I2
I846
tp8746
a(I2
I846
tp8747
a(I3
I847
tp8748
a(I2
I846
tp8749
a(I2
I846
tp8750
a(I2
I846
tp8751
a(I2
I846
tp8752
a(I2
I846
tp8753
a(I2
I846
tp8754
a(I2
I846
tp8755
a(I2
I846
tp8756
a(I2
I846
tp8757
a(I2
I846
tp8758
a(I2
I845
tp8759
a(I2
I846
tp8760
a(I2
I846
tp8761
a(I2
I846
tp8762
a(I2
I847
tp8763
a(I2
I846
tp8764
a(I2
I846
tp8765
a(I2
I846
tp8766
a(I2
I846
tp8767
a(I2
I846
tp8768
a(I2
I846
tp8769
a(I2
I846
tp8770
a(I2
I846
tp8771
a(I3
I846
tp8772
a(I2
I846
tp8773
a(I2
I846
tp8774
a(I2
I846
tp8775
a(I2
I846
tp8776
a(I2
I846
tp8777
a(I2
I846
tp8778
a(I2
I846
tp8779
a(I2
I846
tp8780
a(I2
I846
tp8781
a(I2
I846
tp8782
a(I3
I846
tp8783
a(I2
I846
tp8784
a(I2
I846
tp8785
a(I2
I846
tp8786
a(I2
I846
tp8787
a(I2
I847
tp8788
a(I2
I846
tp8789
a(I2
I846
tp8790
a(I3
I846
tp8791
a(I2
I846
tp8792
a(I2
I846
tp8793
a(I2
I846
tp8794
a(I2
I846
tp8795
a(I2
I846
tp8796
a(I2
I846
tp8797
a(I2
I846
tp8798
a(I2
I846
tp8799
a(I2
I846
tp8800
a(I2
I846
tp8801
a(I3
I846
tp8802
a(I2
I846
tp8803
a(I2
I847
tp8804
a(I2
I846
tp8805
a(I2
I846
tp8806
a(I2
I846
tp8807
a(I2
I846
tp8808
a(I2
I846
tp8809
a(I2
I846
tp8810
a(I2
I846
tp8811
a(I2
I846
tp8812
a(I2
I845
tp8813
a(I2
I846
tp8814
a(I3
I847
tp8815
a(I2
I846
tp8816
a(I2
I846
tp8817
a(I2
I846
tp8818
a(I2
I846
tp8819
a(I3
I846
tp8820
a(I2
I846
tp8821
a(I2
I846
tp8822
a(I2
I846
tp8823
a(I2
I846
tp8824
a(I2
I846
tp8825
a(I2
I846
tp8826
a(I2
I846
tp8827
a(I2
I846
tp8828
a(I2
I846
tp8829
a(I2
I845
tp8830
a(I2
I846
tp8831
a(I2
I847
tp8832
a(I2
I846
tp8833
a(I2
I846
tp8834
a(I2
I845
tp8835
a(I2
I846
tp8836
a(I2
I846
tp8837
a(I2
I846
tp8838
a(I2
I847
tp8839
a(I2
I846
tp8840
a(I2
I845
tp8841
a(I2
I846
tp8842
a(I2
I846
tp8843
a(I2
I846
tp8844
a(I2
I846
tp8845
a(I2
I846
tp8846
a(I2
I846
tp8847
a(I2
I846
tp8848
a(I2
I846
tp8849
a(I2
I847
tp8850
a(I2
I846
tp8851
a(I2
I846
tp8852
a(I2
I846
tp8853
a(I2
I846
tp8854
a(I2
I846
tp8855
a(I2
I846
tp8856
a(I2
I846
tp8857
a(I2
I846
tp8858
a(I2
I846
tp8859
a(I2
I846
tp8860
a(I2
I846
tp8861
a(I2
I846
tp8862
a(I2
I846
tp8863
a(I2
I846
tp8864
a(I2
I846
tp8865
a(I2
I846
tp8866
a(I2
I846
tp8867
a(I2
I846
tp8868
a(I2
I846
tp8869
a(I2
I846
tp8870
a(I2
I846
tp8871
a(I2
I846
tp8872
a(I2
I846
tp8873
a(I2
I846
tp8874
a(I2
I846
tp8875
a(I2
I846
tp8876
a(I2
I846
tp8877
a(I2
I846
tp8878
a(I2
I846
tp8879
a(I2
I846
tp8880
a(I2
I846
tp8881
a(I2
I846
tp8882
a(I2
I846
tp8883
a(I2
I846
tp8884
a(I2
I846
tp8885
a(I2
I846
tp8886
a(I2
I846
tp8887
a(I2
I846
tp8888
a(I2
I846
tp8889
a(I2
I846
tp8890
a(I2
I847
tp8891
a(I2
I846
tp8892
a(I2
I846
tp8893
a(I2
I846
tp8894
a(I2
I846
tp8895
a(I2
I846
tp8896
a(I1
I846
tp8897
a(I2
I846
tp8898
a(I2
I846
tp8899
a(I2
I579
tp8900
a(I2
I847
tp8901
a(I2
I846
tp8902
a(I2
I846
tp8903
a(I2
I846
tp8904
a(I2
I847
tp8905
a(I2
I847
tp8906
a(I2
I847
tp8907
a(I2
I846
tp8908
a(I2
I846
tp8909
a(I2
I846
tp8910
a(I2
I846
tp8911
a(I2
I846
tp8912
a(I2
I846
tp8913
a(I2
I846
tp8914
a(I2
I846
tp8915
a(I2
I846
tp8916
a(I2
I846
tp8917
a(I2
I845
tp8918
a(I2
I846
tp8919
a(I2
I846
tp8920
a(I2
I847
tp8921
a(I2
I846
tp8922
a(I2
I846
tp8923
a(I2
I846
tp8924
a(I2
I846
tp8925
a(I2
I846
tp8926
a(I2
I846
tp8927
a(I2
I846
tp8928
a(I2
I846
tp8929
a(I2
I846
tp8930
a(I2
I846
tp8931
a(I2
I846
tp8932
a(I2
I846
tp8933
a(I2
I846
tp8934
a(I2
I846
tp8935
a(I2
I846
tp8936
a(I2
I846
tp8937
a(I2
I846
tp8938
a(I2
I846
tp8939
a(I2
I846
tp8940
a(I2
I846
tp8941
a(I2
I846
tp8942
a(I2
I846
tp8943
a(I2
I846
tp8944
a(I2
I846
tp8945
a(I2
I846
tp8946
a(I2
I846
tp8947
a(I2
I846
tp8948
a(I2
I846
tp8949
a(I2
I846
tp8950
a(I2
I846
tp8951
a(I2
I846
tp8952
a(I2
I846
tp8953
a(I2
I846
tp8954
a(I2
I846
tp8955
a(I2
I846
tp8956
a(I2
I846
tp8957
a(I2
I846
tp8958
a(I2
I846
tp8959
a(I2
I846
tp8960
a(I2
I846
tp8961
a(I2
I847
tp8962
a(I2
I846
tp8963
a(I2
I846
tp8964
a(I2
I846
tp8965
a(I2
I847
tp8966
a(I2
I847
tp8967
a(I2
I846
tp8968
a(I2
I846
tp8969
a(I2
I846
tp8970
a(I2
I846
tp8971
a(I2
I846
tp8972
a(I2
I846
tp8973
a(I2
I846
tp8974
a(I2
I846
tp8975
a(I2
I846
tp8976
a(I2
I846
tp8977
a(I2
I847
tp8978
a(I2
I846
tp8979
a(I2
I846
tp8980
a(I2
I847
tp8981
a(I2
I846
tp8982
a(I2
I846
tp8983
a(I2
I846
tp8984
a(I2
I846
tp8985
a(I2
I846
tp8986
a(I2
I846
tp8987
a(I2
I846
tp8988
a(I2
I846
tp8989
a(I2
I846
tp8990
a(I1
I846
tp8991
a(I2
I846
tp8992
a(I2
I846
tp8993
a(I2
I846
tp8994
a(I2
I846
tp8995
a(I2
I846
tp8996
a(I2
I846
tp8997
a(I2
I846
tp8998
a(I2
I846
tp8999
a(I2
I846
tp9000
a(I2
I846
tp9001
a(I2
I846
tp9002
a(I2
I846
tp9003
a(I2
I846
tp9004
a(I2
I846
tp9005
a(I2
I846
tp9006
a(I2
I846
tp9007
a(I2
I846
tp9008
a(I2
I846
tp9009
a(I2
I846
tp9010
a(I2
I847
tp9011
a(I2
I846
tp9012
a(I2
I846
tp9013
a(I2
I846
tp9014
a(I2
I846
tp9015
a(I2
I846
tp9016
a(I2
I846
tp9017
a(I2
I846
tp9018
a(I2
I846
tp9019
as.