(dp1
S'DOWN'
p2
(lp3
(I652
I655
tp4
a(I652
I655
tp5
a(I652
I655
tp6
a(I653
I655
tp7
a(I653
I655
tp8
a(I653
I656
tp9
a(I653
I656
tp10
a(I653
I656
tp11
a(I653
I656
tp12
a(I653
I656
tp13
a(I653
I656
tp14
a(I653
I655
tp15
a(I653
I655
tp16
a(I653
I656
tp17
a(I653
I656
tp18
a(I653
I655
tp19
a(I653
I656
tp20
a(I653
I655
tp21
a(I653
I656
tp22
a(I653
I655
tp23
a(I653
I655
tp24
a(I653
I655
tp25
a(I653
I655
tp26
a(I653
I655
tp27
a(I653
I655
tp28
a(I653
I655
tp29
a(I653
I655
tp30
a(I653
I655
tp31
a(I653
I655
tp32
a(I653
I655
tp33
a(I653
I655
tp34
a(I653
I655
tp35
a(I653
I655
tp36
a(I653
I655
tp37
a(I653
I655
tp38
a(I653
I656
tp39
a(I653
I655
tp40
a(I653
I655
tp41
a(I653
I655
tp42
a(I653
I655
tp43
a(I653
I655
tp44
a(I653
I656
tp45
a(I653
I656
tp46
a(I653
I655
tp47
a(I653
I655
tp48
a(I653
I655
tp49
a(I653
I655
tp50
a(I653
I656
tp51
a(I653
I655
tp52
a(I653
I655
tp53
a(I653
I656
tp54
a(I653
I655
tp55
a(I653
I655
tp56
a(I653
I655
tp57
a(I653
I655
tp58
a(I653
I655
tp59
a(I653
I655
tp60
a(I653
I655
tp61
a(I653
I655
tp62
a(I653
I655
tp63
a(I653
I655
tp64
a(I653
I655
tp65
a(I653
I655
tp66
a(I653
I655
tp67
a(I653
I655
tp68
a(I653
I655
tp69
a(I653
I655
tp70
a(I653
I655
tp71
a(I653
I655
tp72
a(I653
I655
tp73
a(I653
I655
tp74
a(I653
I655
tp75
a(I653
I655
tp76
a(I653
I655
tp77
a(I653
I655
tp78
a(I653
I655
tp79
a(I653
I655
tp80
a(I652
I655
tp81
a(I653
I655
tp82
a(I652
I655
tp83
a(I652
I655
tp84
a(I653
I655
tp85
a(I652
I655
tp86
a(I652
I655
tp87
a(I652
I655
tp88
a(I652
I655
tp89
a(I652
I655
tp90
a(I652
I655
tp91
a(I653
I655
tp92
a(I652
I655
tp93
a(I652
I655
tp94
a(I653
I655
tp95
a(I652
I655
tp96
a(I652
I655
tp97
a(I653
I655
tp98
a(I652
I655
tp99
a(I652
I655
tp100
a(I652
I655
tp101
a(I652
I655
tp102
a(I652
I655
tp103
asS'LEFT'
p104
(lp105
(I652
I655
tp106
a(I652
I655
tp107
a(I652
I655
tp108
a(I652
I655
tp109
a(I652
I655
tp110
a(I652
I655
tp111
a(I652
I655
tp112
a(I652
I655
tp113
a(I652
I655
tp114
a(I652
I655
tp115
a(I652
I655
tp116
a(I652
I655
tp117
a(I652
I655
tp118
a(I652
I654
tp119
a(I652
I655
tp120
a(I652
I654
tp121
a(I652
I655
tp122
a(I652
I655
tp123
a(I652
I655
tp124
a(I652
I655
tp125
a(I652
I655
tp126
a(I652
I654
tp127
a(I652
I655
tp128
a(I652
I655
tp129
a(I652
I654
tp130
a(I652
I655
tp131
a(I652
I654
tp132
a(I652
I655
tp133
a(I652
I654
tp134
a(I652
I655
tp135
a(I652
I655
tp136
a(I652
I655
tp137
a(I653
I655
tp138
a(I652
I655
tp139
a(I652
I655
tp140
a(I652
I655
tp141
a(I652
I655
tp142
a(I652
I655
tp143
a(I652
I655
tp144
a(I652
I655
tp145
a(I652
I655
tp146
a(I652
I655
tp147
a(I652
I655
tp148
a(I652
I655
tp149
a(I652
I655
tp150
a(I652
I655
tp151
a(I652
I655
tp152
a(I652
I655
tp153
a(I652
I655
tp154
a(I652
I655
tp155
a(I652
I654
tp156
a(I652
I655
tp157
a(I652
I655
tp158
a(I652
I655
tp159
a(I652
I655
tp160
a(I652
I654
tp161
a(I652
I655
tp162
a(I652
I654
tp163
a(I652
I654
tp164
a(I652
I654
tp165
a(I652
I654
tp166
a(I652
I654
tp167
a(I652
I654
tp168
a(I652
I654
tp169
a(I652
I654
tp170
a(I652
I654
tp171
a(I652
I654
tp172
a(I652
I654
tp173
a(I652
I655
tp174
a(I652
I654
tp175
a(I652
I654
tp176
a(I652
I654
tp177
a(I652
I654
tp178
a(I652
I654
tp179
a(I652
I654
tp180
a(I652
I654
tp181
a(I652
I655
tp182
a(I652
I654
tp183
a(I652
I654
tp184
a(I652
I654
tp185
a(I652
I654
tp186
a(I652
I654
tp187
a(I652
I654
tp188
a(I651
I654
tp189
a(I652
I654
tp190
a(I651
I654
tp191
a(I651
I654
tp192
a(I652
I654
tp193
a(I652
I654
tp194
a(I652
I654
tp195
a(I651
I654
tp196
a(I652
I654
tp197
a(I652
I654
tp198
a(I652
I654
tp199
a(I652
I654
tp200
a(I651
I654
tp201
a(I652
I654
tp202
a(I651
I654
tp203
a(I652
I654
tp204
a(I652
I654
tp205
asS'RIGHT'
p206
(lp207
(I651
I654
tp208
a(I652
I654
tp209
a(I652
I654
tp210
a(I652
I654
tp211
a(I652
I654
tp212
a(I652
I654
tp213
a(I652
I654
tp214
a(I652
I654
tp215
a(I652
I654
tp216
a(I652
I654
tp217
a(I652
I654
tp218
a(I652
I654
tp219
a(I652
I654
tp220
a(I652
I654
tp221
a(I652
I654
tp222
a(I652
I654
tp223
a(I652
I654
tp224
a(I652
I654
tp225
a(I652
I654
tp226
a(I652
I654
tp227
a(I652
I654
tp228
a(I652
I654
tp229
a(I652
I654
tp230
a(I651
I654
tp231
a(I651
I654
tp232
a(I652
I654
tp233
a(I651
I654
tp234
a(I651
I654
tp235
a(I651
I654
tp236
a(I651
I654
tp237
a(I651
I654
tp238
a(I652
I654
tp239
a(I652
I654
tp240
a(I652
I654
tp241
a(I651
I654
tp242
a(I651
I654
tp243
a(I652
I654
tp244
a(I651
I654
tp245
a(I651
I654
tp246
a(I651
I654
tp247
a(I651
I654
tp248
a(I652
I654
tp249
a(I652
I654
tp250
a(I652
I654
tp251
a(I652
I654
tp252
a(I651
I654
tp253
a(I652
I654
tp254
a(I651
I654
tp255
a(I651
I654
tp256
a(I652
I654
tp257
a(I651
I654
tp258
a(I651
I654
tp259
a(I652
I654
tp260
a(I652
I654
tp261
a(I651
I654
tp262
a(I651
I654
tp263
a(I651
I654
tp264
a(I651
I654
tp265
a(I652
I654
tp266
a(I652
I654
tp267
a(I652
I654
tp268
a(I651
I654
tp269
a(I652
I654
tp270
a(I652
I654
tp271
a(I651
I654
tp272
a(I652
I654
tp273
a(I652
I654
tp274
a(I652
I654
tp275
a(I651
I654
tp276
a(I651
I654
tp277
a(I652
I654
tp278
a(I651
I654
tp279
a(I651
I654
tp280
a(I651
I654
tp281
a(I652
I654
tp282
a(I651
I654
tp283
a(I652
I654
tp284
a(I651
I654
tp285
a(I651
I654
tp286
a(I652
I654
tp287
a(I651
I654
tp288
a(I651
I654
tp289
a(I652
I654
tp290
a(I651
I654
tp291
a(I652
I654
tp292
a(I652
I654
tp293
a(I652
I654
tp294
a(I651
I654
tp295
a(I651
I654
tp296
a(I651
I654
tp297
a(I651
I654
tp298
a(I651
I654
tp299
a(I651
I654
tp300
a(I651
I654
tp301
a(I652
I654
tp302
a(I651
I654
tp303
a(I652
I654
tp304
a(I651
I654
tp305
a(I651
I654
tp306
a(I651
I654
tp307
asS'DOWN-RIGHT'
p308
(lp309
(I651
I654
tp310
a(I651
I654
tp311
a(I652
I654
tp312
a(I651
I654
tp313
a(I651
I654
tp314
a(I651
I654
tp315
a(I651
I654
tp316
a(I652
I654
tp317
a(I651
I654
tp318
a(I651
I654
tp319
a(I651
I654
tp320
a(I651
I654
tp321
a(I651
I654
tp322
a(I651
I654
tp323
a(I651
I654
tp324
a(I651
I654
tp325
a(I651
I654
tp326
a(I651
I654
tp327
a(I651
I654
tp328
a(I651
I654
tp329
a(I651
I654
tp330
a(I651
I654
tp331
a(I651
I654
tp332
a(I651
I654
tp333
a(I651
I654
tp334
a(I651
I654
tp335
a(I651
I654
tp336
a(I651
I654
tp337
a(I651
I654
tp338
a(I651
I654
tp339
a(I651
I654
tp340
a(I651
I654
tp341
a(I651
I653
tp342
a(I651
I654
tp343
a(I651
I654
tp344
a(I651
I654
tp345
a(I651
I654
tp346
a(I651
I654
tp347
a(I651
I653
tp348
a(I651
I654
tp349
a(I651
I654
tp350
a(I651
I653
tp351
a(I651
I654
tp352
a(I651
I653
tp353
a(I651
I654
tp354
a(I651
I654
tp355
a(I651
I654
tp356
a(I651
I653
tp357
a(I651
I654
tp358
a(I651
I654
tp359
a(I651
I654
tp360
a(I651
I654
tp361
a(I651
I653
tp362
a(I651
I654
tp363
a(I651
I653
tp364
a(I651
I654
tp365
a(I651
I653
tp366
a(I651
I654
tp367
a(I651
I654
tp368
a(I651
I654
tp369
a(I651
I654
tp370
a(I651
I654
tp371
a(I651
I654
tp372
a(I587
I589
tp373
a(I587
I589
tp374
a(I587
I589
tp375
a(I587
I589
tp376
a(I587
I589
tp377
a(I587
I589
tp378
a(I587
I589
tp379
a(I587
I589
tp380
a(I587
I589
tp381
a(I587
I589
tp382
a(I587
I589
tp383
a(I587
I589
tp384
a(I587
I589
tp385
a(I587
I589
tp386
a(I587
I589
tp387
a(I586
I589
tp388
a(I587
I589
tp389
a(I586
I589
tp390
a(I586
I589
tp391
a(I586
I589
tp392
a(I587
I589
tp393
a(I586
I589
tp394
a(I587
I589
tp395
a(I587
I589
tp396
a(I587
I589
tp397
a(I587
I589
tp398
a(I586
I589
tp399
a(I587
I589
tp400
a(I587
I588
tp401
a(I586
I589
tp402
a(I586
I589
tp403
a(I586
I589
tp404
a(I586
I588
tp405
a(I586
I589
tp406
a(I586
I588
tp407
a(I586
I589
tp408
a(I586
I589
tp409
asS'DOWN-LEFT'
p410
(lp411
(I586
I589
tp412
a(I586
I589
tp413
a(I586
I589
tp414
a(I586
I589
tp415
a(I586
I588
tp416
a(I586
I588
tp417
a(I586
I588
tp418
a(I586
I588
tp419
a(I586
I589
tp420
a(I586
I589
tp421
a(I586
I589
tp422
a(I586
I588
tp423
a(I586
I589
tp424
a(I586
I588
tp425
a(I586
I588
tp426
a(I586
I588
tp427
a(I586
I588
tp428
a(I586
I588
tp429
a(I586
I589
tp430
a(I586
I588
tp431
a(I586
I588
tp432
a(I586
I588
tp433
a(I586
I588
tp434
a(I586
I589
tp435
a(I586
I588
tp436
a(I586
I588
tp437
a(I586
I588
tp438
a(I586
I588
tp439
a(I586
I588
tp440
a(I586
I588
tp441
a(I586
I588
tp442
a(I586
I588
tp443
a(I586
I588
tp444
a(I587
I588
tp445
a(I586
I588
tp446
a(I586
I588
tp447
a(I586
I588
tp448
a(I586
I588
tp449
a(I586
I588
tp450
a(I586
I588
tp451
a(I586
I588
tp452
a(I586
I588
tp453
a(I586
I588
tp454
a(I586
I588
tp455
a(I586
I588
tp456
a(I586
I588
tp457
a(I586
I588
tp458
a(I586
I588
tp459
a(I586
I588
tp460
a(I586
I588
tp461
a(I586
I588
tp462
a(I586
I588
tp463
a(I586
I588
tp464
a(I586
I588
tp465
a(I586
I588
tp466
a(I586
I588
tp467
a(I586
I588
tp468
a(I586
I588
tp469
a(I586
I588
tp470
a(I586
I588
tp471
a(I586
I588
tp472
a(I586
I588
tp473
a(I586
I588
tp474
a(I586
I588
tp475
a(I586
I588
tp476
a(I586
I588
tp477
a(I586
I588
tp478
a(I586
I588
tp479
a(I586
I588
tp480
a(I586
I588
tp481
a(I586
I588
tp482
a(I586
I588
tp483
a(I585
I588
tp484
a(I586
I588
tp485
a(I586
I588
tp486
a(I586
I588
tp487
a(I585
I588
tp488
a(I586
I588
tp489
a(I585
I588
tp490
a(I586
I588
tp491
a(I585
I588
tp492
a(I585
I588
tp493
a(I586
I588
tp494
a(I585
I588
tp495
a(I585
I588
tp496
a(I585
I588
tp497
a(I585
I588
tp498
a(I585
I588
tp499
a(I585
I588
tp500
a(I586
I588
tp501
a(I585
I588
tp502
a(I585
I588
tp503
a(I585
I588
tp504
a(I585
I588
tp505
a(I585
I588
tp506
a(I585
I588
tp507
a(I585
I588
tp508
a(I585
I588
tp509
a(I585
I588
tp510
a(I585
I587
tp511
asS'UP-LEFT'
p512
(lp513
(I585
I588
tp514
a(I585
I587
tp515
a(I585
I587
tp516
a(I585
I588
tp517
a(I585
I588
tp518
a(I585
I588
tp519
a(I585
I588
tp520
a(I585
I587
tp521
a(I585
I587
tp522
a(I585
I588
tp523
a(I585
I587
tp524
a(I585
I587
tp525
a(I585
I588
tp526
a(I585
I587
tp527
a(I585
I587
tp528
a(I585
I588
tp529
a(I585
I588
tp530
a(I585
I587
tp531
a(I585
I587
tp532
a(I585
I587
tp533
a(I585
I587
tp534
a(I585
I587
tp535
a(I585
I587
tp536
a(I585
I587
tp537
a(I585
I587
tp538
a(I585
I587
tp539
a(I585
I587
tp540
a(I585
I588
tp541
a(I585
I587
tp542
a(I585
I587
tp543
a(I585
I587
tp544
a(I585
I587
tp545
a(I585
I587
tp546
a(I585
I587
tp547
a(I585
I587
tp548
a(I585
I587
tp549
a(I585
I587
tp550
a(I585
I587
tp551
a(I585
I587
tp552
a(I585
I587
tp553
a(I585
I587
tp554
a(I585
I587
tp555
a(I585
I587
tp556
a(I585
I587
tp557
a(I585
I587
tp558
a(I585
I587
tp559
a(I585
I587
tp560
a(I585
I587
tp561
a(I585
I587
tp562
a(I585
I587
tp563
a(I585
I587
tp564
a(I585
I587
tp565
a(I585
I587
tp566
a(I585
I587
tp567
a(I585
I587
tp568
a(I585
I587
tp569
a(I585
I587
tp570
a(I584
I587
tp571
a(I585
I587
tp572
a(I585
I587
tp573
a(I585
I587
tp574
a(I585
I587
tp575
a(I585
I587
tp576
a(I585
I587
tp577
a(I585
I587
tp578
a(I585
I587
tp579
a(I585
I587
tp580
a(I585
I587
tp581
a(I585
I587
tp582
a(I585
I587
tp583
a(I585
I587
tp584
a(I585
I587
tp585
a(I585
I587
tp586
a(I585
I587
tp587
a(I585
I587
tp588
a(I585
I587
tp589
a(I585
I587
tp590
a(I585
I587
tp591
a(I584
I587
tp592
a(I584
I587
tp593
a(I585
I587
tp594
a(I585
I587
tp595
a(I584
I587
tp596
a(I585
I587
tp597
a(I584
I587
tp598
a(I584
I587
tp599
a(I584
I587
tp600
a(I584
I587
tp601
a(I584
I587
tp602
a(I584
I587
tp603
a(I584
I587
tp604
a(I584
I586
tp605
a(I584
I587
tp606
a(I584
I586
tp607
a(I584
I586
tp608
a(I584
I586
tp609
a(I584
I586
tp610
a(I584
I587
tp611
a(I584
I586
tp612
a(I584
I586
tp613
asS'UP'
p614
(lp615
(I584
I586
tp616
a(I584
I586
tp617
a(I584
I586
tp618
a(I584
I587
tp619
a(I584
I586
tp620
a(I584
I586
tp621
a(I584
I587
tp622
a(I584
I587
tp623
a(I584
I586
tp624
a(I584
I586
tp625
a(I584
I586
tp626
a(I584
I586
tp627
a(I584
I586
tp628
a(I584
I586
tp629
a(I584
I586
tp630
a(I584
I586
tp631
a(I584
I586
tp632
a(I584
I586
tp633
a(I584
I586
tp634
a(I584
I587
tp635
a(I584
I586
tp636
a(I584
I586
tp637
a(I584
I586
tp638
a(I584
I586
tp639
a(I584
I586
tp640
a(I584
I586
tp641
a(I584
I586
tp642
a(I584
I586
tp643
a(I584
I586
tp644
a(I584
I586
tp645
a(I584
I586
tp646
a(I584
I586
tp647
a(I584
I586
tp648
a(I584
I586
tp649
a(I584
I586
tp650
a(I584
I586
tp651
a(I584
I586
tp652
a(I584
I586
tp653
a(I584
I586
tp654
a(I584
I586
tp655
a(I584
I586
tp656
a(I584
I586
tp657
a(I584
I586
tp658
a(I584
I586
tp659
a(I584
I586
tp660
a(I583
I586
tp661
a(I584
I586
tp662
a(I584
I586
tp663
a(I584
I586
tp664
a(I584
I586
tp665
a(I583
I586
tp666
a(I583
I586
tp667
a(I583
I586
tp668
a(I584
I586
tp669
a(I584
I586
tp670
a(I584
I586
tp671
a(I584
I586
tp672
a(I583
I586
tp673
a(I584
I586
tp674
a(I583
I586
tp675
a(I583
I586
tp676
a(I583
I586
tp677
a(I583
I586
tp678
a(I583
I585
tp679
a(I583
I586
tp680
a(I583
I586
tp681
a(I583
I586
tp682
a(I583
I586
tp683
a(I583
I586
tp684
a(I583
I586
tp685
a(I583
I586
tp686
a(I583
I586
tp687
a(I583
I586
tp688
a(I584
I586
tp689
a(I583
I586
tp690
a(I583
I586
tp691
a(I583
I586
tp692
a(I583
I586
tp693
a(I583
I586
tp694
a(I583
I586
tp695
a(I583
I586
tp696
a(I583
I586
tp697
a(I583
I586
tp698
a(I583
I586
tp699
a(I583
I586
tp700
a(I584
I586
tp701
a(I583
I586
tp702
a(I583
I586
tp703
a(I584
I586
tp704
a(I583
I586
tp705
a(I584
I586
tp706
a(I583
I586
tp707
a(I583
I586
tp708
a(I583
I586
tp709
a(I583
I586
tp710
a(I583
I586
tp711
a(I584
I586
tp712
a(I583
I586
tp713
a(I584
I586
tp714
a(I583
I586
tp715
asS'UP-RIGHT'
p716
(lp717
(I583
I586
tp718
a(I583
I586
tp719
a(I583
I586
tp720
a(I583
I586
tp721
a(I583
I585
tp722
a(I583
I585
tp723
a(I583
I586
tp724
a(I583
I586
tp725
a(I583
I585
tp726
a(I583
I586
tp727
a(I583
I585
tp728
a(I583
I585
tp729
a(I583
I586
tp730
a(I583
I586
tp731
a(I583
I585
tp732
a(I583
I586
tp733
a(I583
I586
tp734
a(I583
I585
tp735
a(I583
I586
tp736
a(I583
I586
tp737
a(I583
I586
tp738
a(I583
I586
tp739
a(I583
I586
tp740
a(I583
I586
tp741
a(I583
I585
tp742
a(I583
I586
tp743
a(I583
I586
tp744
a(I583
I586
tp745
a(I583
I586
tp746
a(I583
I586
tp747
a(I583
I585
tp748
a(I583
I585
tp749
a(I583
I585
tp750
a(I583
I585
tp751
a(I583
I585
tp752
a(I583
I585
tp753
a(I583
I585
tp754
a(I583
I585
tp755
a(I583
I585
tp756
a(I583
I585
tp757
a(I583
I585
tp758
a(I583
I585
tp759
a(I583
I585
tp760
a(I583
I585
tp761
a(I583
I585
tp762
a(I583
I585
tp763
a(I583
I585
tp764
a(I583
I585
tp765
a(I583
I585
tp766
a(I583
I585
tp767
a(I583
I585
tp768
a(I583
I585
tp769
a(I583
I585
tp770
a(I583
I585
tp771
a(I583
I585
tp772
a(I583
I585
tp773
a(I583
I585
tp774
a(I583
I585
tp775
a(I583
I585
tp776
a(I583
I585
tp777
a(I583
I585
tp778
a(I583
I585
tp779
a(I583
I585
tp780
a(I582
I585
tp781
a(I583
I585
tp782
a(I583
I585
tp783
a(I583
I585
tp784
a(I583
I585
tp785
a(I583
I585
tp786
a(I583
I585
tp787
a(I583
I585
tp788
a(I583
I585
tp789
a(I583
I585
tp790
a(I583
I585
tp791
a(I583
I585
tp792
a(I583
I585
tp793
a(I583
I585
tp794
a(I583
I585
tp795
a(I583
I585
tp796
a(I583
I585
tp797
a(I583
I585
tp798
a(I583
I585
tp799
a(I583
I585
tp800
a(I582
I585
tp801
a(I583
I585
tp802
a(I582
I585
tp803
a(I583
I585
tp804
a(I583
I585
tp805
a(I582
I585
tp806
a(I582
I585
tp807
a(I582
I585
tp808
a(I583
I585
tp809
a(I583
I585
tp810
a(I583
I585
tp811
a(I582
I585
tp812
a(I583
I585
tp813
a(I583
I585
tp814
a(I583
I585
tp815
a(I583
I585
tp816
a(I583
I585
tp817
asS'BLINK'
p818
(lp819
(I583
I585
tp820
a(I583
I585
tp821
a(I583
I585
tp822
a(I583
I585
tp823
a(I583
I585
tp824
a(I583
I585
tp825
a(I583
I585
tp826
a(I583
I585
tp827
a(I583
I585
tp828
a(I583
I585
tp829
a(I583
I585
tp830
a(I582
I585
tp831
a(I582
I585
tp832
a(I582
I585
tp833
a(I582
I585
tp834
a(I582
I585
tp835
a(I582
I585
tp836
a(I582
I585
tp837
a(I582
I585
tp838
a(I582
I585
tp839
a(I582
I585
tp840
a(I582
I585
tp841
a(I582
I584
tp842
a(I582
I584
tp843
a(I582
I584
tp844
a(I582
I585
tp845
a(I582
I584
tp846
a(I582
I584
tp847
a(I582
I584
tp848
a(I582
I584
tp849
a(I582
I584
tp850
a(I582
I584
tp851
a(I582
I584
tp852
a(I582
I584
tp853
a(I582
I584
tp854
a(I582
I584
tp855
a(I582
I584
tp856
a(I582
I584
tp857
a(I582
I584
tp858
a(I582
I584
tp859
a(I582
I584
tp860
a(I582
I584
tp861
a(I582
I584
tp862
a(I582
I584
tp863
a(I582
I584
tp864
a(I582
I584
tp865
a(I582
I584
tp866
a(I582
I584
tp867
a(I582
I584
tp868
a(I582
I584
tp869
a(I582
I584
tp870
a(I582
I584
tp871
a(I582
I584
tp872
a(I582
I584
tp873
a(I582
I584
tp874
a(I582
I584
tp875
a(I582
I584
tp876
a(I582
I584
tp877
a(I582
I584
tp878
a(I582
I584
tp879
a(I582
I584
tp880
a(I582
I584
tp881
a(I582
I584
tp882
a(I573
I575
tp883
a(I573
I575
tp884
a(I573
I575
tp885
a(I572
I575
tp886
a(I572
I575
tp887
a(I572
I575
tp888
a(I572
I575
tp889
a(I572
I575
tp890
a(I572
I575
tp891
a(I572
I575
tp892
a(I573
I575
tp893
a(I573
I575
tp894
a(I572
I575
tp895
a(I573
I575
tp896
a(I573
I575
tp897
a(I573
I575
tp898
a(I573
I575
tp899
a(I573
I575
tp900
a(I573
I575
tp901
a(I573
I575
tp902
a(I573
I575
tp903
a(I573
I575
tp904
a(I573
I575
tp905
a(I573
I575
tp906
a(I573
I575
tp907
a(I573
I575
tp908
a(I573
I575
tp909
a(I573
I575
tp910
a(I573
I575
tp911
a(I573
I575
tp912
a(I573
I575
tp913
a(I573
I575
tp914
a(I573
I575
tp915
a(I573
I575
tp916
a(I573
I575
tp917
a(I573
I575
tp918
a(I573
I575
tp919
as.