(dp1
S'DOWN'
p2
(lp3
(I95272
I743
tp4
a(I933
I104
tp5
a(I759
I118
tp6
a(I776
I113
tp7
a(I746
I107
tp8
a(I750
I119
tp9
a(I748
I108
tp10
a(I769
I116
tp11
a(I756
I116
tp12
a(I1023
I1023
tp13
a(I1023
I1023
tp14
a(I972
I743
tp15
a(I933
I104
tp16
a(I759
I118
tp17
a(I776
I113
tp18
a(I746
I107
tp19
a(I750
I119
tp20
a(I748
I108
tp21
a(I769
I116
tp22
a(I756
I116
tp23
a(I712
I191
tp24
a(I672
I142
tp25
a(I632
I137
tp26
a(I847
I357
tp27
a(I801
I250
tp28
a(I705
I186
tp29
a(I665
I152
tp30
a(I722
I203
tp31
a(I712
I206
tp32
a(I693
I173
tp33
a(I708
I168
tp34
a(I682
I146
tp35
a(I749
I235
tp36
a(I855
I276
tp37
a(I797
I217
tp38
a(I746
I214
tp39
a(I697
I199
tp40
a(I837
I307
tp41
a(I838
I248
tp42
a(I1003
I182
tp43
a(I920
I212
tp44
a(I836
I171
tp45
a(I879
I391
tp46
a(I756
I185
tp47
a(I890
I328
tp48
a(I742
I192
tp49
a(I865
I255
tp50
a(I800
I300
tp51
a(I857
I304
tp52
a(I990
I164
tp53
a(I900
I349
tp54
a(I1022
I256
tp55
a(I816
I290
tp56
a(I1013
I281
tp57
a(I812
I239
tp58
a(I894
I251
tp59
a(I900
I387
tp60
a(I898
I318
tp61
a(I904
I337
tp62
a(I1023
I265
tp63
a(I894
I328
tp64
a(I895
I344
tp65
a(I897
I342
tp66
a(I882
I311
tp67
a(I818
I320
tp68
a(I924
I412
tp69
a(I899
I356
tp70
a(I832
I328
tp71
a(I944
I409
tp72
a(I891
I327
tp73
a(I923
I411
tp74
a(I870
I332
tp75
a(I918
I385
tp76
a(I908
I380
tp77
a(I866
I334
tp78
a(I924
I333
tp79
a(I897
I346
tp80
a(I925
I349
tp81
a(I910
I341
tp82
a(I884
I325
tp83
a(I907
I355
tp84
a(I886
I356
tp85
a(I918
I364
tp86
a(I913
I364
tp87
a(I898
I355
tp88
a(I943
I364
tp89
a(I921
I357
tp90
a(I938
I354
tp91
a(I941
I368
tp92
a(I917
I325
tp93
a(I903
I326
tp94
a(I947
I357
tp95
a(I929
I346
tp96
a(I907
I319
tp97
a(I945
I348
tp98
a(I939
I346
tp99
a(I956
I348
tp100
a(I928
I309
tp101
a(I955
I335
tp102
a(I956
I354
tp103
a(I958
I342
tp104
a(I954
I364
tp105
a(I932
I338
tp106
a(I957
I335
tp107
a(I943
I337
tp108
a(I940
I319
tp109
a(I946
I337
tp110
a(I953
I317
tp111
a(I962
I323
tp112
a(I967
I343
tp113
a(I967
I334
tp114
a(I979
I332
tp115
a(I981
I323
tp116
a(I984
I334
tp117
a(I965
I318
tp118
a(I973
I312
tp119
a(I984
I317
tp120
a(I984
I299
tp121
a(I989
I310
tp122
a(I993
I306
tp123
a(I989
I313
tp124
a(I997
I303
tp125
a(I1008
I306
tp126
a(I1002
I302
tp127
a(I1007
I296
tp128
a(I992
I296
tp129
a(I1010
I297
tp130
a(I1006
I295
tp131
a(I1018
I298
tp132
a(I1016
I294
tp133
a(I1019
I288
tp134
a(I1009
I280
tp135
a(I1023
I290
tp136
a(I1023
I289
tp137
a(I1023
I305
tp138
a(I1023
I307
tp139
a(I1023
I344
tp140
a(I1023
I356
tp141
a(I1023
I377
tp142
a(I1023
I366
tp143
a(I1023
I440
tp144
a(I1023
I398
tp145
a(I1023
I554
tp146
a(I1009
I946
tp147
a(I934
I1023
tp148
a(I928
I1023
tp149
a(I941
I1023
tp150
a(I963
I1023
tp151
a(I961
I1023
tp152
a(I995
I1023
tp153
a(I1002
I1016
tp154
a(I1014
I967
tp155
a(I1017
I968
tp156
a(I1023
I937
tp157
a(I1023
I943
tp158
a(I1023
I962
tp159
a(I1023
I917
tp160
a(I1023
I928
tp161
a(I1023
I924
tp162
a(I1023
I928
tp163
a(I1023
I900
tp164
a(I1023
I920
tp165
a(I1023
I923
tp166
a(I1023
I939
tp167
a(I1023
I910
tp168
a(I1023
I902
tp169
a(I1023
I892
tp170
a(I1023
I905
tp171
a(I1023
I924
tp172
a(I1023
I884
tp173
a(I1023
I899
tp174
a(I1023
I884
tp175
a(I1023
I910
tp176
a(I1023
I908
tp177
a(I1023
I904
tp178
a(I1023
I908
tp179
a(I1023
I879
tp180
a(I1023
I898
tp181
a(I1023
I904
tp182
a(I1023
I897
tp183
a(I1023
I886
tp184
a(I1023
I880
tp185
a(I1023
I886
tp186
a(I1023
I867
tp187
a(I1023
I887
tp188
a(I1023
I893
tp189
a(I1023
I904
tp190
a(I1023
I874
tp191
a(I1023
I897
tp192
a(I1023
I895
tp193
a(I1023
I862
tp194
a(I1023
I866
tp195
a(I1023
I892
tp196
a(I1023
I863
tp197
a(I1023
I899
tp198
a(I1023
I895
tp199
a(I1023
I899
tp200
a(I1023
I869
tp201
a(I1023
I858
tp202
a(I1023
I888
tp203
a(I1023
I903
tp204
a(I1023
I874
tp205
a(I1023
I876
tp206
a(I1023
I853
tp207
a(I1023
I888
tp208
a(I1023
I876
tp209
a(I1023
I888
tp210
a(I1023
I907
tp211
a(I1023
I879
tp212
a(I1023
I850
tp213
a(I1023
I836
tp214
a(I1023
I879
tp215
a(I1023
I869
tp216
a(I1023
I830
tp217
a(I1023
I881
tp218
a(I1023
I886
tp219
a(I1023
I856
tp220
a(I1023
I891
tp221
a(I1023
I907
tp222
a(I1023
I851
tp223
a(I1023
I844
tp224
a(I1023
I898
tp225
a(I1023
I848
tp226
a(I1023
I885
tp227
a(I1023
I850
tp228
a(I1023
I852
tp229
a(I1023
I844
tp230
a(I1023
I837
tp231
a(I1023
I899
tp232
a(I1023
I847
tp233
a(I1023
I822
tp234
a(I1023
I906
tp235
a(I1023
I860
tp236
a(I1023
I908
tp237
a(I1023
I811
tp238
a(I1023
I841
tp239
a(I1023
I889
tp240
a(I1023
I837
tp241
a(I1023
I873
tp242
a(I1023
I862
tp243
a(I1023
I844
tp244
a(I1023
I856
tp245
a(I1023
I847
tp246
a(I1023
I824
tp247
a(I1023
I857
tp248
a(I1023
I895
tp249
a(I1023
I832
tp250
a(I1023
I853
tp251
a(I1023
I834
tp252
a(I1023
I851
tp253
a(I1023
I815
tp254
a(I1023
I816
tp255
a(I1023
I898
tp256
a(I1023
I880
tp257
a(I1023
I829
tp258
a(I1023
I905
tp259
a(I1023
I823
tp260
a(I1023
I875
tp261
a(I1023
I896
tp262
a(I1023
I807
tp263
a(I1023
I847
tp264
a(I1023
I842
tp265
a(I1023
I897
tp266
a(I1023
I905
tp267
a(I1023
I834
tp268
a(I1023
I837
tp269
a(I1023
I804
tp270
a(I1023
I834
tp271
a(I1023
I857
tp272
a(I1023
I886
tp273
a(I1023
I859
tp274
a(I1023
I866
tp275
a(I1023
I901
tp276
a(I1023
I841
tp277
a(I1023
I866
tp278
a(I1023
I786
tp279
a(I1023
I912
tp280
a(I1023
I827
tp281
a(I1023
I882
tp282
a(I1023
I923
tp283
a(I1023
I810
tp284
a(I1023
I927
tp285
a(I1023
I825
tp286
a(I1023
I809
tp287
a(I1023
I912
tp288
a(I1023
I803
tp289
a(I1023
I895
tp290
a(I1023
I919
tp291
a(I1023
I833
tp292
a(I1023
I839
tp293
a(I1023
I897
tp294
a(I1023
I883
tp295
a(I1023
I835
tp296
a(I1023
I893
tp297
a(I1023
I940
tp298
a(I1023
I919
tp299
a(I1023
I849
tp300
a(I1023
I802
tp301
a(I1023
I814
tp302
a(I1023
I846
tp303
a(I1023
I892
tp304
a(I1023
I937
tp305
a(I1023
I913
tp306
a(I1023
I923
tp307
a(I1023
I925
tp308
a(I1023
I877
tp309
a(I1023
I855
tp310
a(I1023
I867
tp311
a(I1023
I841
tp312
a(I1023
I870
tp313
a(I1023
I912
tp314
a(I1023
I874
tp315
a(I1023
I949
tp316
a(I1023
I940
tp317
a(I1023
I902
tp318
a(I1023
I861
tp319
a(I1023
I802
tp320
a(I1023
I944
tp321
a(I1023
I812
tp322
a(I1023
I900
tp323
a(I1023
I805
tp324
a(I1023
I840
tp325
a(I1023
I923
tp326
a(I1023
I887
tp327
a(I1023
I906
tp328
a(I1023
I885
tp329
a(I1023
I870
tp330
a(I1023
I779
tp331
a(I1023
I817
tp332
a(I1023
I828
tp333
a(I1004
I730
tp334
a(I1023
I771
tp335
a(I1023
I814
tp336
a(I1023
I906
tp337
a(I1023
I801
tp338
a(I1023
I906
tp339
a(I1023
I923
tp340
a(I1023
I849
tp341
a(I1023
I785
tp342
a(I1023
I898
tp343
a(I1023
I956
tp344
a(I1023
I815
tp345
a(I994
I771
tp346
a(I1005
I778
tp347
a(I1023
I906
tp348
a(I1023
I953
tp349
a(I1023
I987
tp350
a(I1010
I781
tp351
a(I1023
I816
tp352
a(I1023
I917
tp353
a(I1023
I1002
tp354
a(I1013
I779
tp355
a(I994
I771
tp356
a(I1005
I778
tp357
a(I1023
I906
tp358
a(I1023
I953
tp359
a(I1023
I987
tp360
a(I1010
I781
tp361
a(I1023
I816
tp362
a(I1023
I996
tp363
a(I1010
I785
tp364
a(I1023
I834
tp365
a(I736
I191
tp366
a(I1023
I948
tp367
a(I1023
I806
tp368
a(I1023
I793
tp369
a(I928
I368
tp370
a(I1023
I925
tp371
a(I830
I439
tp372
a(I1023
I836
tp373
a(I1023
I794
tp374
a(I962
I706
tp375
a(I1023
I925
tp376
a(I959
I378
tp377
a(I1023
I858
tp378
a(I1023
I854
tp379
a(I1023
I806
tp380
a(I831
I410
tp381
a(I1023
I712
tp382
a(I1023
I854
tp383
a(I820
I381
tp384
a(I1023
I875
tp385
a(I1023
I791
tp386
a(I796
I211
tp387
a(I1023
I995
tp388
a(I1023
I978
tp389
a(I1023
I840
tp390
a(I843
I446
tp391
a(I1023
I659
tp392
a(I817
I231
tp393
a(I1023
I777
tp394
a(I1023
I813
tp395
a(I1023
I949
tp396
a(I1023
I955
tp397
a(I426
I314
tp398
a(I397
I0
tp399
a(I878
I420
tp400
a(I1023
I590
tp401
a(I1023
I965
tp402
a(I1023
I846
tp403
a(I1023
I817
tp404
a(I1023
I950
tp405
a(I1023
I971
tp406
a(I1023
I851
tp407
a(I1023
I1022
tp408
a(I972
I741
tp409
a(I1013
I793
tp410
a(I1023
I926
tp411
a(I1023
I819
tp412
a(I1023
I903
tp413
a(I1023
I1023
tp414
a(I1023
I1002
tp415
a(I1023
I885
tp416
a(I1023
I824
tp417
a(I1023
I850
tp418
a(I1023
I955
tp419
a(I894
I698
tp420
a(I563
I94
tp421
a(I475
I0
tp422
a(I978
I311
tp423
a(I1023
I906
tp424
a(I1023
I823
tp425
a(I1023
I882
tp426
a(I1023
I842
tp427
a(I1023
I1023
tp428
a(I1023
I937
tp429
a(I1023
I946
tp430
a(I1023
I1023
tp431
a(I1023
I819
tp432
a(I1023
I975
tp433
a(I1020
I798
tp434
a(I1023
I1023
tp435
a(I1023
I939
tp436
a(I1023
I787
tp437
a(I1023
I955
tp438
a(I1023
I974
tp439
a(I798
I170
tp440
a(I1023
I1019
tp441
a(I1023
I900
tp442
a(I1023
I987
tp443
a(I792
I190
tp444
a(I1023
I1013
tp445
a(I1023
I423
tp446
a(I1023
I822
tp447
a(I1023
I998
tp448
a(I1023
I810
tp449
a(I1023
I882
tp450
a(I1023
I800
tp451
a(I1023
I999
tp452
a(I1023
I960
tp453
a(I913
I344
tp454
a(I1023
I1014
tp455
a(I1023
I1023
tp456
a(I1023
I1010
tp457
a(I1023
I1011
tp458
a(I1023
I392
tp459
a(I1023
I1023
tp460
a(I1023
I1023
tp461
a(I920
I574
tp462
a(I1023
I594
tp463
a(I1023
I1023
tp464
a(I914
I494
tp465
a(I1023
I710
tp466
a(I1023
I1023
tp467
a(I1023
I256
tp468
a(I1023
I1023
tp469
a(I1023
I1023
tp470
a(I1023
I140
tp471
a(I1023
I1023
tp472
a(I1023
I803
tp473
a(I1023
I390
tp474
a(I1023
I1023
tp475
a(I967
I672
tp476
a(I1023
I375
tp477
a(I1023
I1023
tp478
a(I920
I478
tp479
a(I1023
I663
tp480
a(I1023
I1023
tp481
a(I982
I422
tp482
a(I1023
I766
tp483
a(I1023
I1023
tp484
a(I1023
I264
tp485
a(I1023
I1023
tp486
a(I1023
I1023
tp487
a(I1023
I136
tp488
a(I1023
I1023
tp489
a(I988
I744
tp490
a(I1023
I348
tp491
a(I1023
I1000
tp492
a(I1023
I265
tp493
a(I927
I504
tp494
a(I1023
I665
tp495
a(I1023
I1023
tp496
a(I1023
I852
tp497
a(I1023
I887
tp498
a(I1021
I185
tp499
a(I1023
I902
tp500
a(I1023
I226
tp501
a(I1023
I1023
tp502
a(I1023
I1023
tp503
asS'LEFT'
p504
(lp505
(I1023
I327
tp506
a(I1023
I1023
tp507
a(I922
I536
tp508
a(I1023
I591
tp509
a(I1023
I1023
tp510
a(I1023
I259
tp511
a(I1023
I1023
tp512
a(I1023
I1023
tp513
a(I1023
I214
tp514
a(I1023
I1023
tp515
a(I1023
I819
tp516
a(I1023
I371
tp517
a(I1023
I125
tp518
a(I1023
I29
tp519
a(I1023
I0
tp520
a(I1023
I0
tp521
a(I1023
I0
tp522
a(I1023
I0
tp523
a(I1023
I0
tp524
a(I1023
I0
tp525
a(I1023
I0
tp526
a(I1023
I0
tp527
a(I1023
I0
tp528
a(I1023
I0
tp529
a(I1023
I0
tp530
a(I1023
I0
tp531
a(I1023
I0
tp532
a(I1023
I0
tp533
a(I1023
I0
tp534
a(I1023
I0
tp535
a(I1023
I0
tp536
a(I1023
I0
tp537
a(I1023
I0
tp538
a(I1023
I0
tp539
a(I1023
I0
tp540
a(I1023
I0
tp541
a(I1023
I0
tp542
a(I1023
I0
tp543
a(I1023
I0
tp544
a(I1023
I0
tp545
a(I1023
I0
tp546
a(I1023
I0
tp547
a(I1023
I0
tp548
a(I1023
I0
tp549
a(I1023
I0
tp550
a(I1023
I0
tp551
a(I1023
I0
tp552
a(I1023
I0
tp553
a(I1023
I0
tp554
a(I1023
I0
tp555
a(I1023
I0
tp556
a(I1023
I0
tp557
a(I1023
I0
tp558
a(I1023
I0
tp559
a(I1023
I0
tp560
a(I1023
I0
tp561
a(I1023
I0
tp562
a(I1023
I0
tp563
a(I1023
I0
tp564
a(I1023
I0
tp565
a(I1023
I0
tp566
a(I1023
I0
tp567
a(I1023
I0
tp568
a(I1023
I0
tp569
a(I1023
I0
tp570
a(I1023
I0
tp571
a(I1023
I0
tp572
a(I1023
I0
tp573
a(I1023
I0
tp574
a(I1023
I0
tp575
a(I1023
I0
tp576
a(I1023
I0
tp577
a(I1023
I0
tp578
a(I1023
I472
tp579
a(I877
I1023
tp580
a(I815
I1023
tp581
a(I813
I1023
tp582
a(I817
I1023
tp583
a(I807
I1023
tp584
a(I819
I1023
tp585
a(I843
I1023
tp586
a(I248
I312
tp587
a(I105
I124
tp588
a(I960
I997
tp589
a(I845
I1023
tp590
a(I824
I1023
tp591
a(I825
I1023
tp592
a(I822
I1023
tp593
a(I843
I1023
tp594
a(I878
I1023
tp595
a(I921
I1023
tp596
a(I937
I1023
tp597
a(I938
I1023
tp598
a(I957
I1023
tp599
a(I956
I1023
tp600
a(I982
I1012
tp601
a(I989
I986
tp602
a(I1017
I978
tp603
a(I996
I993
tp604
a(I1003
I969
tp605
a(I1017
I966
tp606
a(I1007
I968
tp607
a(I1019
I963
tp608
a(I1023
I948
tp609
a(I1023
I932
tp610
a(I1023
I909
tp611
a(I1023
I928
tp612
a(I1023
I926
tp613
a(I1023
I920
tp614
a(I1023
I902
tp615
a(I1023
I916
tp616
a(I1023
I902
tp617
a(I1023
I916
tp618
a(I1023
I916
tp619
a(I1023
I902
tp620
a(I1023
I916
tp621
a(I1023
I905
tp622
a(I1023
I904
tp623
a(I1023
I895
tp624
a(I1023
I875
tp625
a(I1023
I895
tp626
a(I1023
I898
tp627
a(I1023
I905
tp628
a(I1023
I879
tp629
a(I1003
I813
tp630
a(I181
I151
tp631
a(I638
I428
tp632
a(I1023
I778
tp633
a(I1023
I928
tp634
a(I1023
I943
tp635
a(I1023
I905
tp636
a(I1023
I913
tp637
a(I1023
I890
tp638
a(I1023
I895
tp639
a(I1023
I896
tp640
a(I1023
I882
tp641
a(I1023
I874
tp642
a(I1023
I871
tp643
a(I1023
I875
tp644
a(I1023
I867
tp645
a(I1023
I899
tp646
a(I1023
I875
tp647
a(I1023
I884
tp648
a(I1023
I881
tp649
a(I1023
I849
tp650
a(I1023
I871
tp651
a(I1023
I873
tp652
a(I1023
I868
tp653
a(I1023
I894
tp654
a(I1023
I889
tp655
a(I1023
I878
tp656
a(I1023
I892
tp657
a(I1023
I861
tp658
a(I1023
I839
tp659
a(I1023
I877
tp660
a(I1023
I864
tp661
a(I1023
I878
tp662
a(I1023
I875
tp663
a(I1023
I871
tp664
a(I1023
I870
tp665
a(I1023
I871
tp666
a(I1023
I853
tp667
a(I1023
I880
tp668
a(I1023
I856
tp669
a(I1023
I846
tp670
a(I1023
I858
tp671
a(I1023
I869
tp672
a(I1023
I829
tp673
a(I1023
I850
tp674
a(I1023
I855
tp675
a(I1023
I865
tp676
a(I1023
I887
tp677
a(I1023
I858
tp678
a(I1023
I839
tp679
a(I1023
I839
tp680
a(I1023
I832
tp681
a(I1023
I878
tp682
a(I1023
I867
tp683
a(I1023
I862
tp684
a(I1023
I885
tp685
a(I1023
I872
tp686
a(I1023
I868
tp687
a(I1023
I801
tp688
a(I1023
I820
tp689
a(I1023
I872
tp690
a(I1023
I848
tp691
a(I1023
I838
tp692
a(I1023
I823
tp693
a(I1023
I831
tp694
a(I1023
I841
tp695
a(I1023
I829
tp696
a(I1023
I823
tp697
a(I1023
I851
tp698
a(I1023
I816
tp699
a(I1023
I825
tp700
a(I1023
I834
tp701
a(I1023
I869
tp702
a(I1023
I811
tp703
a(I1023
I845
tp704
a(I1023
I812
tp705
a(I1023
I822
tp706
a(I1023
I868
tp707
a(I1023
I864
tp708
a(I1023
I864
tp709
a(I1023
I888
tp710
a(I1023
I865
tp711
a(I1023
I889
tp712
a(I1023
I863
tp713
a(I1023
I880
tp714
a(I1023
I867
tp715
a(I1023
I883
tp716
a(I1023
I802
tp717
a(I1023
I819
tp718
a(I1023
I890
tp719
a(I1023
I874
tp720
a(I1023
I818
tp721
a(I1023
I900
tp722
a(I1023
I878
tp723
a(I1023
I867
tp724
a(I1023
I844
tp725
a(I1023
I830
tp726
a(I1023
I814
tp727
a(I1023
I889
tp728
a(I1023
I888
tp729
a(I1023
I834
tp730
a(I1023
I810
tp731
a(I1023
I853
tp732
a(I1023
I865
tp733
a(I1023
I892
tp734
a(I1023
I894
tp735
a(I1023
I828
tp736
a(I1023
I854
tp737
a(I1023
I842
tp738
a(I1023
I867
tp739
a(I723
I585
tp740
a(I1023
I648
tp741
a(I1023
I354
tp742
a(I1023
I313
tp743
a(I1023
I320
tp744
a(I1023
I261
tp745
a(I1023
I197
tp746
a(I1023
I229
tp747
a(I1023
I194
tp748
a(I1023
I229
tp749
a(I1023
I280
tp750
a(I1023
I322
tp751
a(I579
I165
tp752
a(I1023
I599
tp753
a(I1023
I829
tp754
a(I680
I582
tp755
a(I141
I125
tp756
a(I533
I151
tp757
a(I607
I486
tp758
a(I122
I101
tp759
a(I27
I0
tp760
a(I202
I0
tp761
a(I1023
I826
tp762
a(I1023
I1023
tp763
a(I919
I887
tp764
a(I1023
I1023
tp765
a(I183
I176
tp766
a(I13
I13
tp767
a(I0
I0
tp768
a(I252
I0
tp769
a(I969
I521
tp770
a(I1023
I1023
tp771
a(I1023
I1023
tp772
a(I1023
I1023
tp773
a(I1023
I1023
tp774
a(I1023
I1023
tp775
a(I1023
I1023
tp776
a(I1023
I1023
tp777
a(I1023
I1023
tp778
a(I1023
I1023
tp779
a(I1023
I1023
tp780
a(I1023
I882
tp781
a(I1023
I1023
tp782
a(I1023
I1023
tp783
a(I1023
I1023
tp784
a(I1023
I1019
tp785
a(I1023
I1023
tp786
a(I1023
I912
tp787
a(I1023
I1016
tp788
a(I1023
I1023
tp789
a(I1023
I999
tp790
a(I1023
I848
tp791
a(I1023
I983
tp792
a(I1023
I990
tp793
a(I1023
I887
tp794
a(I1023
I893
tp795
a(I1023
I931
tp796
a(I1023
I900
tp797
a(I1023
I984
tp798
a(I1023
I954
tp799
a(I1023
I858
tp800
a(I1023
I855
tp801
a(I1023
I913
tp802
a(I1023
I1002
tp803
a(I1023
I910
tp804
a(I1023
I986
tp805
a(I1023
I984
tp806
a(I1023
I920
tp807
a(I1023
I918
tp808
a(I1023
I891
tp809
a(I1023
I843
tp810
a(I1023
I836
tp811
a(I1023
I835
tp812
a(I1023
I817
tp813
a(I1023
I846
tp814
a(I1023
I875
tp815
a(I1023
I926
tp816
a(I1023
I968
tp817
a(I1023
I941
tp818
a(I1023
I915
tp819
a(I1023
I852
tp820
a(I1023
I815
tp821
a(I1023
I874
tp822
a(I1023
I933
tp823
a(I1023
I974
tp824
a(I1023
I913
tp825
a(I1023
I861
tp826
a(I1023
I853
tp827
a(I1023
I966
tp828
a(I1023
I860
tp829
a(I1023
I843
tp830
a(I1023
I967
tp831
a(I1023
I854
tp832
a(I1023
I845
tp833
a(I1023
I974
tp834
a(I1023
I864
tp835
a(I1023
I858
tp836
a(I1023
I950
tp837
a(I1023
I827
tp838
a(I1023
I866
tp839
a(I1023
I906
tp840
a(I1023
I854
tp841
a(I1023
I921
tp842
a(I1023
I831
tp843
a(I1023
I937
tp844
a(I1023
I795
tp845
a(I1023
I948
tp846
a(I1023
I817
tp847
a(I1023
I935
tp848
a(I1023
I825
tp849
a(I1023
I0
tp850
a(I1023
I0
tp851
a(I1023
I0
tp852
a(I1023
I0
tp853
a(I1023
I0
tp854
a(I1023
I0
tp855
a(I1023
I0
tp856
a(I1023
I0
tp857
a(I1023
I0
tp858
a(I1023
I0
tp859
a(I1023
I0
tp860
a(I1023
I0
tp861
a(I1023
I0
tp862
a(I1023
I0
tp863
a(I1023
I0
tp864
a(I1023
I0
tp865
a(I1023
I0
tp866
a(I1023
I0
tp867
a(I1023
I0
tp868
a(I1023
I0
tp869
a(I1023
I0
tp870
a(I1023
I0
tp871
a(I1023
I0
tp872
a(I1023
I0
tp873
a(I1023
I0
tp874
a(I1023
I0
tp875
a(I1023
I0
tp876
a(I1023
I0
tp877
a(I1023
I0
tp878
a(I1023
I0
tp879
a(I1023
I0
tp880
a(I1023
I0
tp881
a(I1023
I0
tp882
a(I1023
I0
tp883
a(I1023
I0
tp884
a(I1023
I0
tp885
a(I1023
I0
tp886
a(I1023
I0
tp887
a(I1023
I0
tp888
a(I1023
I0
tp889
a(I1023
I0
tp890
a(I1023
I0
tp891
a(I1023
I0
tp892
a(I1023
I0
tp893
a(I1023
I0
tp894
a(I1023
I0
tp895
a(I1023
I0
tp896
a(I1023
I0
tp897
a(I1023
I0
tp898
a(I1023
I0
tp899
a(I1023
I0
tp900
a(I1023
I0
tp901
a(I1023
I0
tp902
a(I1023
I0
tp903
a(I1023
I0
tp904
a(I1023
I0
tp905
a(I1023
I0
tp906
a(I1023
I0
tp907
a(I1023
I0
tp908
a(I1023
I0
tp909
a(I1023
I0
tp910
a(I1023
I0
tp911
a(I1023
I0
tp912
a(I1023
I0
tp913
a(I1023
I0
tp914
a(I1023
I0
tp915
a(I1023
I0
tp916
a(I1023
I0
tp917
a(I1023
I0
tp918
a(I1023
I0
tp919
a(I1023
I303
tp920
a(I1023
I1023
tp921
a(I1023
I1023
tp922
a(I1023
I1023
tp923
a(I1023
I1023
tp924
a(I684
I953
tp925
a(I654
I968
tp926
a(I653
I977
tp927
a(I647
I975
tp928
a(I669
I967
tp929
a(I664
I967
tp930
a(I683
I972
tp931
a(I697
I987
tp932
a(I694
I968
tp933
a(I695
I967
tp934
a(I717
I973
tp935
a(I701
I972
tp936
a(I712
I988
tp937
a(I709
I994
tp938
a(I723
I989
tp939
a(I723
I980
tp940
a(I713
I989
tp941
a(I754
I989
tp942
a(I759
I989
tp943
a(I768
I974
tp944
a(I772
I973
tp945
a(I784
I975
tp946
a(I768
I975
tp947
a(I777
I994
tp948
a(I766
I984
tp949
a(I763
I986
tp950
a(I761
I987
tp951
a(I775
I999
tp952
a(I776
I991
tp953
a(I755
I1007
tp954
a(I795
I999
tp955
a(I789
I995
tp956
a(I783
I995
tp957
a(I775
I991
tp958
a(I801
I993
tp959
a(I823
I989
tp960
a(I834
I979
tp961
a(I857
I972
tp962
a(I862
I968
tp963
a(I877
I971
tp964
a(I889
I971
tp965
a(I900
I968
tp966
a(I908
I963
tp967
a(I891
I952
tp968
a(I900
I964
tp969
a(I910
I962
tp970
a(I896
I967
tp971
a(I905
I961
tp972
a(I925
I958
tp973
a(I927
I956
tp974
a(I914
I962
tp975
a(I922
I951
tp976
a(I928
I936
tp977
a(I930
I939
tp978
a(I931
I941
tp979
a(I935
I952
tp980
a(I928
I951
tp981
a(I939
I950
tp982
a(I938
I948
tp983
a(I942
I948
tp984
a(I953
I941
tp985
a(I946
I939
tp986
a(I938
I947
tp987
a(I970
I906
tp988
a(I945
I928
tp989
a(I986
I912
tp990
a(I951
I917
tp991
a(I980
I913
tp992
a(I980
I900
tp993
a(I976
I908
tp994
a(I979
I882
tp995
a(I972
I897
tp996
a(I993
I886
tp997
a(I978
I870
tp998
a(I985
I870
tp999
a(I993
I884
tp1000
a(I992
I882
tp1001
a(I985
I873
tp1002
a(I981
I899
tp1003
a(I1006
I886
tp1004
a(I984
I892
tp1005
asS'RIGHT'
p1006
(lp1007
(I995
I905
tp1008
a(I1008
I889
tp1009
a(I1007
I896
tp1010
a(I966
I861
tp1011
a(I989
I894
tp1012
a(I994
I880
tp1013
a(I1009
I907
tp1014
a(I986
I892
tp1015
a(I994
I889
tp1016
a(I1023
I890
tp1017
a(I1023
I890
tp1018
a(I1021
I895
tp1019
a(I1023
I877
tp1020
a(I1023
I884
tp1021
a(I1023
I888
tp1022
a(I1012
I865
tp1023
a(I1017
I876
tp1024
a(I1023
I882
tp1025
a(I1023
I841
tp1026
a(I1023
I857
tp1027
a(I1023
I874
tp1028
a(I1023
I861
tp1029
a(I1023
I857
tp1030
a(I1023
I892
tp1031
a(I1023
I890
tp1032
a(I1023
I879
tp1033
a(I1023
I896
tp1034
a(I1023
I886
tp1035
a(I1023
I888
tp1036
a(I1023
I879
tp1037
a(I1023
I885
tp1038
a(I1023
I889
tp1039
a(I1023
I886
tp1040
a(I1023
I898
tp1041
a(I1023
I882
tp1042
a(I1023
I891
tp1043
a(I1023
I890
tp1044
a(I1023
I873
tp1045
a(I1023
I882
tp1046
a(I1023
I877
tp1047
a(I1023
I869
tp1048
a(I1023
I871
tp1049
a(I1023
I877
tp1050
a(I1023
I840
tp1051
a(I1023
I872
tp1052
a(I1023
I864
tp1053
a(I1023
I829
tp1054
a(I1023
I852
tp1055
a(I1023
I850
tp1056
a(I1023
I849
tp1057
a(I1023
I838
tp1058
a(I1023
I876
tp1059
a(I1023
I824
tp1060
a(I1023
I830
tp1061
a(I1023
I846
tp1062
a(I1023
I821
tp1063
a(I1023
I871
tp1064
a(I1023
I894
tp1065
a(I1023
I887
tp1066
a(I1023
I877
tp1067
a(I1023
I857
tp1068
a(I1023
I845
tp1069
a(I1023
I828
tp1070
a(I1023
I887
tp1071
a(I1023
I879
tp1072
a(I1023
I859
tp1073
a(I1023
I806
tp1074
a(I1023
I866
tp1075
a(I1023
I848
tp1076
a(I1023
I859
tp1077
a(I1023
I804
tp1078
a(I1023
I869
tp1079
a(I1023
I876
tp1080
a(I1023
I819
tp1081
a(I1023
I838
tp1082
a(I1023
I870
tp1083
a(I1023
I846
tp1084
a(I1023
I831
tp1085
a(I1023
I862
tp1086
a(I1023
I810
tp1087
a(I541
I430
tp1088
a(I109
I90
tp1089
a(I227
I0
tp1090
a(I280
I0
tp1091
a(I690
I256
tp1092
a(I1023
I753
tp1093
a(I1023
I918
tp1094
a(I1023
I870
tp1095
a(I1023
I937
tp1096
a(I1023
I845
tp1097
a(I1023
I975
tp1098
a(I439
I384
tp1099
a(I88
I79
tp1100
a(I151
I0
tp1101
a(I57
I0
tp1102
a(I233
I0
tp1103
a(I376
I0
tp1104
a(I1023
I606
tp1105
a(I355
I275
tp1106
a(I69
I46
tp1107
a(I161
I0
tp1108
a(I230
I0
tp1109
a(I810
I418
tp1110
a(I1023
I953
tp1111
a(I1023
I1023
tp1112
a(I1023
I844
tp1113
a(I1003
I863
tp1114
a(I392
I339
tp1115
a(I185
I40
tp1116
a(I706
I322
tp1117
a(I1023
I959
tp1118
a(I1023
I1023
tp1119
a(I1023
I1023
tp1120
a(I1023
I1023
tp1121
a(I1023
I1000
tp1122
a(I1023
I1023
tp1123
a(I1023
I1023
tp1124
a(I1023
I1023
tp1125
a(I1023
I1023
tp1126
a(I1023
I903
tp1127
a(I1023
I990
tp1128
a(I1023
I981
tp1129
a(I1023
I1018
tp1130
a(I1023
I865
tp1131
a(I1023
I953
tp1132
a(I1023
I894
tp1133
a(I1023
I919
tp1134
a(I1023
I1023
tp1135
a(I1023
I915
tp1136
a(I1023
I969
tp1137
a(I1023
I858
tp1138
a(I1023
I909
tp1139
a(I1023
I900
tp1140
a(I1023
I819
tp1141
a(I1023
I953
tp1142
a(I1023
I836
tp1143
a(I1023
I941
tp1144
a(I1023
I885
tp1145
a(I1023
I943
tp1146
a(I1023
I853
tp1147
a(I1023
I955
tp1148
a(I1023
I829
tp1149
a(I1023
I977
tp1150
a(I1023
I896
tp1151
a(I1023
I831
tp1152
a(I1023
I944
tp1153
a(I1023
I823
tp1154
a(I1023
I954
tp1155
a(I1023
I898
tp1156
a(I1023
I829
tp1157
a(I1023
I971
tp1158
a(I1023
I905
tp1159
a(I1023
I812
tp1160
a(I1023
I878
tp1161
a(I1023
I839
tp1162
a(I1023
I932
tp1163
a(I1023
I860
tp1164
a(I1023
I962
tp1165
a(I1023
I919
tp1166
a(I1023
I837
tp1167
a(I1023
I932
tp1168
a(I1023
I957
tp1169
a(I1023
I817
tp1170
a(I1023
I892
tp1171
a(I1023
I937
tp1172
a(I1023
I848
tp1173
a(I1023
I877
tp1174
a(I1023
I900
tp1175
a(I1023
I830
tp1176
a(I1023
I882
tp1177
a(I1023
I939
tp1178
a(I1023
I885
tp1179
a(I1023
I837
tp1180
a(I1023
I950
tp1181
a(I1023
I879
tp1182
a(I1023
I883
tp1183
a(I1023
I883
tp1184
a(I1023
I864
tp1185
a(I1023
I858
tp1186
a(I1023
I984
tp1187
a(I1023
I815
tp1188
a(I1023
I958
tp1189
a(I1023
I841
tp1190
a(I1023
I882
tp1191
a(I1023
I950
tp1192
a(I1023
I809
tp1193
a(I1023
I911
tp1194
a(I1023
I881
tp1195
a(I1023
I895
tp1196
a(I1023
I961
tp1197
a(I1023
I839
tp1198
a(I1023
I841
tp1199
a(I1023
I962
tp1200
a(I1023
I935
tp1201
a(I1023
I862
tp1202
a(I1023
I847
tp1203
a(I1023
I903
tp1204
a(I1023
I965
tp1205
a(I1023
I933
tp1206
a(I1023
I803
tp1207
a(I1023
I863
tp1208
a(I1023
I913
tp1209
a(I1023
I912
tp1210
a(I1023
I947
tp1211
a(I1023
I875
tp1212
a(I1023
I890
tp1213
a(I1023
I927
tp1214
a(I1023
I865
tp1215
a(I1023
I879
tp1216
a(I1023
I949
tp1217
a(I1023
I964
tp1218
a(I1023
I922
tp1219
a(I1023
I854
tp1220
a(I1023
I843
tp1221
a(I1023
I878
tp1222
a(I1023
I876
tp1223
a(I1023
I808
tp1224
a(I1023
I866
tp1225
a(I1023
I956
tp1226
a(I1023
I956
tp1227
a(I1023
I971
tp1228
a(I1023
I969
tp1229
a(I1023
I889
tp1230
a(I1023
I898
tp1231
a(I1023
I901
tp1232
a(I1023
I918
tp1233
a(I1023
I831
tp1234
a(I1023
I882
tp1235
a(I1023
I973
tp1236
a(I1023
I891
tp1237
a(I1023
I845
tp1238
a(I1023
I827
tp1239
a(I1023
I801
tp1240
a(I1023
I966
tp1241
a(I1023
I879
tp1242
a(I1023
I883
tp1243
a(I869
I612
tp1244
a(I1023
I640
tp1245
a(I1023
I868
tp1246
a(I1023
I933
tp1247
a(I1023
I867
tp1248
a(I1023
I838
tp1249
a(I1023
I916
tp1250
a(I1023
I798
tp1251
a(I709
I347
tp1252
a(I1023
I880
tp1253
a(I616
I142
tp1254
a(I1023
I964
tp1255
a(I1023
I952
tp1256
a(I1023
I846
tp1257
a(I1023
I453
tp1258
a(I391
I325
tp1259
a(I74
I61
tp1260
a(I0
I0
tp1261
a(I0
I0
tp1262
a(I139
I0
tp1263
a(I731
I333
tp1264
a(I1023
I938
tp1265
a(I1023
I947
tp1266
a(I232
I170
tp1267
a(I21
I9
tp1268
a(I95
I0
tp1269
a(I223
I0
tp1270
a(I20
I0
tp1271
a(I323
I0
tp1272
a(I250
I0
tp1273
a(I867
I403
tp1274
a(I1023
I1023
tp1275
a(I1023
I1003
tp1276
a(I316
I298
tp1277
a(I264
I0
tp1278
a(I819
I309
tp1279
a(I1023
I1023
tp1280
a(I1023
I1023
tp1281
a(I1023
I1023
tp1282
a(I1023
I1023
tp1283
a(I1023
I1023
tp1284
a(I1023
I1023
tp1285
a(I1023
I1023
tp1286
a(I1023
I1023
tp1287
a(I1023
I1023
tp1288
a(I1023
I1023
tp1289
a(I1023
I1023
tp1290
a(I1023
I1023
tp1291
a(I1023
I1023
tp1292
a(I1023
I1023
tp1293
a(I1023
I983
tp1294
a(I1023
I932
tp1295
a(I1023
I966
tp1296
a(I1023
I925
tp1297
a(I1023
I1023
tp1298
a(I1023
I1023
tp1299
a(I1023
I1019
tp1300
a(I1023
I1023
tp1301
a(I1023
I1023
tp1302
a(I1023
I998
tp1303
a(I1023
I839
tp1304
a(I1023
I1011
tp1305
a(I1023
I922
tp1306
a(I1023
I989
tp1307
a(I1023
I1023
tp1308
a(I1023
I1023
tp1309
a(I1023
I1023
tp1310
a(I1023
I1010
tp1311
a(I1023
I946
tp1312
a(I1023
I1000
tp1313
a(I1023
I950
tp1314
a(I1023
I962
tp1315
a(I1023
I1023
tp1316
a(I1023
I899
tp1317
a(I1023
I927
tp1318
a(I1023
I957
tp1319
a(I1023
I1001
tp1320
a(I1023
I859
tp1321
a(I1023
I846
tp1322
a(I1023
I845
tp1323
a(I1023
I853
tp1324
a(I1023
I854
tp1325
a(I1023
I826
tp1326
a(I1023
I888
tp1327
a(I1023
I882
tp1328
a(I1023
I894
tp1329
a(I1023
I886
tp1330
a(I944
I764
tp1331
a(I934
I784
tp1332
a(I393
I151
tp1333
a(I296
I0
tp1334
a(I667
I277
tp1335
a(I1023
I969
tp1336
a(I1023
I948
tp1337
a(I1023
I846
tp1338
a(I1023
I844
tp1339
a(I1023
I897
tp1340
a(I1023
I903
tp1341
a(I1023
I890
tp1342
a(I1023
I834
tp1343
a(I1023
I854
tp1344
a(I1023
I905
tp1345
a(I1023
I911
tp1346
a(I1923
I877
tp1347
a(I1023
I865
tp1348
a(I1023
I973
tp1349
a(I1023
I859
tp1350
a(I1023
I847
tp1351
a(I1023
I967
tp1352
a(I1023
I969
tp1353
a(I1023
I965
tp1354
a(I1023
I970
tp1355
a(I1023
I971
tp1356
a(I1023
I877
tp1357
a(I1023
I865
tp1358
a(I1023
I973
tp1359
a(I1023
I859
tp1360
a(I1023
I847
tp1361
a(I1023
I967
tp1362
a(I1023
I969
tp1363
a(I1023
I965
tp1364
a(I1023
I970
tp1365
a(I1023
I971
tp1366
a(I1023
I877
tp1367
a(I1023
I865
tp1368
a(I1023
I853
tp1369
a(I1023
I993
tp1370
a(I1023
I893
tp1371
a(I1023
I863
tp1372
a(I1023
I883
tp1373
a(I1023
I896
tp1374
a(I1023
I901
tp1375
a(I1023
I965
tp1376
a(I1023
I844
tp1377
a(I1023
I936
tp1378
a(I1023
I836
tp1379
a(I1023
I964
tp1380
a(I1023
I834
tp1381
a(I1023
I879
tp1382
a(I1023
I886
tp1383
a(I1023
I953
tp1384
a(I1023
I829
tp1385
a(I1023
I907
tp1386
a(I1023
I987
tp1387
a(I1023
I924
tp1388
a(I1023
I951
tp1389
a(I1023
I972
tp1390
a(I1023
I1002
tp1391
a(I1023
I836
tp1392
a(I1023
I917
tp1393
a(I1023
I882
tp1394
a(I1023
I965
tp1395
a(I1023
I832
tp1396
a(I1023
I863
tp1397
a(I1023
I850
tp1398
a(I1023
I957
tp1399
a(I1023
I1008
tp1400
a(I1023
I993
tp1401
a(I1023
I929
tp1402
a(I1015
I808
tp1403
a(I1023
I980
tp1404
a(I1008
I823
tp1405
a(I1023
I973
tp1406
a(I1023
I939
tp1407
a(I1023
I862
tp1408
a(I994
I821
tp1409
a(I1023
I930
tp1410
a(I962
I777
tp1411
a(I1023
I1022
tp1412
a(I1023
I880
tp1413
a(I1023
I1012
tp1414
a(I1023
I946
tp1415
a(I1023
I971
tp1416
a(I989
I822
tp1417
a(I1023
I958
tp1418
a(I965
I794
tp1419
a(I1023
I975
tp1420
a(I977
I809
tp1421
a(I1023
I923
tp1422
a(I1023
I891
tp1423
a(I902
I726
tp1424
a(I1023
I940
tp1425
a(I928
I743
tp1426
a(I1023
I879
tp1427
a(I1008
I840
tp1428
a(I1023
I887
tp1429
a(I958
I775
tp1430
a(I1023
I949
tp1431
a(I1023
I849
tp1432
a(I1023
I889
tp1433
a(I1009
I823
tp1434
a(I1023
I891
tp1435
a(I1005
I806
tp1436
a(I1023
I897
tp1437
a(I1023
I831
tp1438
a(I1023
I858
tp1439
a(I1023
I948
tp1440
a(I1023
I933
tp1441
a(I1023
I926
tp1442
a(I1023
I874
tp1443
a(I1023
I854
tp1444
a(I1023
I902
tp1445
a(I1023
I974
tp1446
a(I1023
I894
tp1447
a(I963
I737
tp1448
a(I1023
I997
tp1449
a(I1023
I806
tp1450
a(I1023
I888
tp1451
a(I1023
I970
tp1452
a(I1023
I915
tp1453
a(I994
I790
tp1454
a(I1004
I778
tp1455
a(I1023
I1006
tp1456
a(I1023
I964
tp1457
a(I989
I786
tp1458
a(I1023
I942
tp1459
a(I1023
I865
tp1460
a(I1023
I873
tp1461
a(I1023
I1003
tp1462
a(I1023
I1015
tp1463
a(I819
I289
tp1464
a(I1023
I811
tp1465
a(I1023
I933
tp1466
a(I1023
I911
tp1467
a(I1023
I962
tp1468
a(I1005
I801
tp1469
a(I930
I699
tp1470
a(I1023
I829
tp1471
a(I725
I215
tp1472
a(I1023
I840
tp1473
a(I1023
I933
tp1474
a(I1023
I959
tp1475
a(I969
I769
tp1476
a(I1023
I944
tp1477
a(I981
I806
tp1478
a(I717
I276
tp1479
a(I451
I0
tp1480
a(I662
I216
tp1481
a(I470
I16
tp1482
a(I781
I344
tp1483
a(I1023
I653
tp1484
a(I944
I790
tp1485
a(I1023
I898
tp1486
a(I1023
I1023
tp1487
a(I1000
I861
tp1488
a(I1023
I1023
tp1489
a(I1023
I928
tp1490
a(I1023
I1006
tp1491
a(I1023
I965
tp1492
a(I1023
I1023
tp1493
a(I1007
I860
tp1494
a(I1023
I1021
tp1495
a(I926
I746
tp1496
a(I936
I783
tp1497
a(I869
I680
tp1498
a(I562
I100
tp1499
a(I440
I19
tp1500
a(I1023
I566
tp1501
a(I1023
I944
tp1502
a(I1023
I989
tp1503
a(I958
I800
tp1504
a(I1023
I880
tp1505
a(I1023
I981
tp1506
a(I1023
I880
tp1507
asS'DOWN-RIGHT'
p1508
(lp1509
(I1023
I969
tp1510
a(I1018
I852
tp1511
a(I1023
I924
tp1512
a(I1023
I906
tp1513
a(I1023
I951
tp1514
a(I1019
I842
tp1515
a(I1023
I1023
tp1516
a(I1023
I920
tp1517
a(I1023
I1023
tp1518
a(I1023
I992
tp1519
a(I1023
I873
tp1520
a(I1017
I846
tp1521
a(I1023
I936
tp1522
a(I1023
I991
tp1523
a(I1023
I889
tp1524
a(I1023
I995
tp1525
a(I984
I814
tp1526
a(I1023
I999
tp1527
a(I1023
I1023
tp1528
a(I985
I781
tp1529
a(I1002
I814
tp1530
a(I1023
I900
tp1531
a(I923
I711
tp1532
a(I910
I692
tp1533
a(I993
I803
tp1534
a(I906
I676
tp1535
a(I851
I294
tp1536
a(I1023
I987
tp1537
a(I1023
I911
tp1538
a(I1023
I936
tp1539
a(I1023
I853
tp1540
a(I1023
I1023
tp1541
a(I950
I772
tp1542
a(I1023
I918
tp1543
a(I1023
I1023
tp1544
a(I946
I742
tp1545
a(I992
I798
tp1546
a(I997
I815
tp1547
a(I1023
I890
tp1548
a(I1023
I1023
tp1549
a(I795
I353
tp1550
a(I1023
I909
tp1551
a(I1023
I1010
tp1552
a(I950
I772
tp1553
a(I1017
I837
tp1554
a(I1023
I964
tp1555
a(I709
I201
tp1556
a(I1023
I791
tp1557
a(I1023
I942
tp1558
a(I1023
I981
tp1559
a(I985
I801
tp1560
a(I969
I799
tp1561
a(I1023
I877
tp1562
a(I1023
I1023
tp1563
a(I1023
I913
tp1564
a(I951
I778
tp1565
a(I1023
I925
tp1566
a(I594
I128
tp1567
a(I1023
I931
tp1568
a(I1023
I1023
tp1569
a(I591
I136
tp1570
a(I378
I0
tp1571
a(I658
I188
tp1572
a(I1023
I1010
tp1573
a(I946
I806
tp1574
a(I939
I808
tp1575
a(I1023
I983
tp1576
a(I1023
I1023
tp1577
a(I969
I848
tp1578
a(I706
I312
tp1579
a(I447
I4
tp1580
a(I690
I247
tp1581
a(I1023
I771
tp1582
a(I1023
I978
tp1583
a(I1023
I936
tp1584
a(I1023
I1023
tp1585
a(I1009
I905
tp1586
a(I926
I802
tp1587
a(I990
I863
tp1588
a(I1023
I914
tp1589
a(I1023
I1023
tp1590
a(I1023
I917
tp1591
a(I1023
I889
tp1592
a(I1023
I1023
tp1593
a(I979
I836
tp1594
a(I958
I804
tp1595
a(I944
I790
tp1596
a(I959
I806
tp1597
a(I937
I778
tp1598
a(I955
I805
tp1599
a(I977
I820
tp1600
a(I1004
I844
tp1601
a(I1023
I1003
tp1602
a(I1023
I958
tp1603
a(I973
I810
tp1604
a(I968
I809
tp1605
a(I950
I791
tp1606
a(I923
I744
tp1607
a(I987
I827
tp1608
a(I1023
I885
tp1609
a(I927
I747
tp1610
a(I1016
I865
tp1611
a(I980
I818
tp1612
a(I1016
I857
tp1613
a(I996
I835
tp1614
a(I1014
I847
tp1615
a(I1023
I945
tp1616
a(I1023
I989
tp1617
a(I1023
I1023
tp1618
a(I1023
I924
tp1619
a(I782
I379
tp1620
a(I1023
I807
tp1621
a(I1023
I952
tp1622
a(I1023
I1023
tp1623
a(I999
I851
tp1624
a(I1014
I851
tp1625
a(I1023
I1022
tp1626
a(I1023
I1011
tp1627
a(I989
I807
tp1628
a(I970
I810
tp1629
a(I992
I830
tp1630
a(I1023
I950
tp1631
a(I1023
I950
tp1632
a(I776
I353
tp1633
a(I1023
I725
tp1634
a(I940
I773
tp1635
a(I972
I816
tp1636
a(I996
I854
tp1637
a(I790
I464
tp1638
a(I529
I44
tp1639
a(I1023
I1023
tp1640
a(I1023
I915
tp1641
a(I958
I822
tp1642
a(I1023
I974
tp1643
a(I742
I411
tp1644
a(I805
I350
tp1645
a(I1023
I945
tp1646
a(I934
I806
tp1647
a(I725
I335
tp1648
a(I625
I167
tp1649
a(I730
I186
tp1650
a(I947
I750
tp1651
a(I1007
I883
tp1652
a(I947
I809
tp1653
a(I1023
I954
tp1654
a(I1016
I903
tp1655
a(I1023
I909
tp1656
a(I976
I833
tp1657
a(I1023
I952
tp1658
a(I991
I842
tp1659
a(I953
I817
tp1660
a(I940
I780
tp1661
a(I962
I816
tp1662
a(I982
I841
tp1663
a(I1023
I972
tp1664
a(I938
I801
tp1665
a(I943
I795
tp1666
a(I960
I816
tp1667
a(I1023
I928
tp1668
a(I997
I870
tp1669
a(I993
I861
tp1670
a(I1023
I933
tp1671
a(I1023
I992
tp1672
a(I1023
I1023
tp1673
a(I995
I871
tp1674
a(I1023
I1023
tp1675
a(I1023
I989
tp1676
a(I1023
I1016
tp1677
a(I949
I804
tp1678
a(I1023
I1023
tp1679
a(I981
I847
tp1680
a(I1023
I1023
tp1681
a(I961
I824
tp1682
a(I1008
I886
tp1683
a(I964
I828
tp1684
a(I1023
I1023
tp1685
a(I602
I131
tp1686
a(I374
I0
tp1687
a(I654
I194
tp1688
a(I1023
I915
tp1689
a(I1021
I933
tp1690
a(I1023
I1023
tp1691
a(I945
I840
tp1692
a(I1023
I982
tp1693
a(I1023
I1013
tp1694
a(I926
I808
tp1695
a(I941
I819
tp1696
a(I1023
I948
tp1697
a(I968
I850
tp1698
a(I1023
I1010
tp1699
a(I1023
I933
tp1700
a(I1017
I924
tp1701
a(I988
I885
tp1702
a(I744
I445
tp1703
a(I485
I43
tp1704
a(I566
I138
tp1705
a(I762
I293
tp1706
a(I989
I850
tp1707
a(I934
I823
tp1708
a(I946
I830
tp1709
a(I988
I885
tp1710
a(I1000
I903
tp1711
a(I1023
I998
tp1712
a(I600
I144
tp1713
a(I388
I0
tp1714
a(I658
I173
tp1715
a(I1023
I815
tp1716
a(I913
I792
tp1717
a(I932
I820
tp1718
a(I977
I886
tp1719
a(I1000
I917
tp1720
a(I980
I894
tp1721
a(I1023
I967
tp1722
a(I1023
I952
tp1723
a(I1023
I1023
tp1724
a(I1023
I1023
tp1725
a(I1023
I993
tp1726
a(I1023
I1023
tp1727
a(I916
I810
tp1728
a(I1023
I1023
tp1729
a(I1023
I1023
tp1730
a(I1023
I1023
tp1731
a(I1023
I1023
tp1732
a(I1023
I1023
tp1733
a(I1023
I1021
tp1734
a(I568
I119
tp1735
a(I368
I0
tp1736
a(I644
I150
tp1737
a(I384
I0
tp1738
a(I662
I167
tp1739
a(I1012
I854
tp1740
a(I1023
I1008
tp1741
a(I981
I902
tp1742
a(I1023
I1023
tp1743
a(I993
I907
tp1744
a(I1023
I985
tp1745
a(I1007
I934
tp1746
a(I957
I846
tp1747
a(I1023
I966
tp1748
a(I974
I855
tp1749
a(I1023
I949
tp1750
a(I969
I854
tp1751
a(I937
I820
tp1752
a(I1023
I945
tp1753
a(I1003
I901
tp1754
a(I1023
I937
tp1755
a(I960
I847
tp1756
a(I958
I841
tp1757
a(I1023
I1023
tp1758
a(I1007
I912
tp1759
a(I1023
I963
tp1760
a(I1023
I1023
tp1761
a(I1004
I903
tp1762
a(I1023
I930
tp1763
a(I1023
I990
tp1764
a(I1023
I956
tp1765
a(I995
I899
tp1766
a(I1023
I1023
tp1767
a(I544
I123
tp1768
a(I358
I0
tp1769
a(I577
I122
tp1770
a(I359
I0
tp1771
a(I543
I98
tp1772
a(I447
I33
tp1773
a(I551
I94
tp1774
a(I1023
I736
tp1775
a(I1022
I961
tp1776
a(I1023
I1023
tp1777
a(I1023
I1023
tp1778
a(I1004
I932
tp1779
a(I1013
I948
tp1780
a(I1023
I976
tp1781
a(I1013
I948
tp1782
a(I1023
I1023
tp1783
a(I1023
I1001
tp1784
a(I979
I894
tp1785
a(I1023
I1023
tp1786
a(I977
I890
tp1787
a(I1023
I1023
tp1788
a(I1023
I1023
tp1789
a(I1023
I1023
tp1790
a(I1023
I1023
tp1791
a(I1023
I1023
tp1792
a(I1023
I1023
tp1793
a(I1023
I1023
tp1794
a(I1023
I980
tp1795
a(I742
I408
tp1796
a(I504
I30
tp1797
a(I886
I425
tp1798
a(I1023
I851
tp1799
a(I942
I835
tp1800
a(I1021
I943
tp1801
a(I1023
I1023
tp1802
a(I1023
I1023
tp1803
a(I1023
I1023
tp1804
a(I1023
I1023
tp1805
a(I1016
I933
tp1806
a(I1023
I1023
tp1807
a(I1023
I1023
tp1808
a(I1023
I1023
tp1809
a(I1023
I1023
tp1810
a(I1023
I1023
tp1811
a(I1023
I1023
tp1812
a(I1023
I1023
tp1813
a(I1023
I1023
tp1814
a(I1023
I1023
tp1815
a(I770
I461
tp1816
a(I521
I43
tp1817
a(I827
I271
tp1818
a(I1023
I1023
tp1819
a(I1023
I1023
tp1820
a(I1023
I1023
tp1821
a(I1023
I1023
tp1822
a(I1023
I1023
tp1823
a(I1023
I1023
tp1824
a(I1023
I1023
tp1825
a(I1023
I1023
tp1826
a(I1023
I980
tp1827
a(I1023
I1023
tp1828
a(I1023
I1023
tp1829
a(I1023
I1023
tp1830
a(I1023
I1023
tp1831
a(I1023
I1023
tp1832
a(I1023
I1023
tp1833
a(I1023
I1023
tp1834
a(I1023
I1023
tp1835
a(I1023
I1023
tp1836
a(I1023
I1023
tp1837
a(I1023
I1000
tp1838
a(I824
I650
tp1839
a(I578
I91
tp1840
a(I412
I0
tp1841
a(I744
I187
tp1842
a(I1023
I957
tp1843
a(I1023
I1023
tp1844
a(I1023
I988
tp1845
a(I1023
I1023
tp1846
a(I1023
I1023
tp1847
a(I1023
I1023
tp1848
a(I385
I0
tp1849
a(I497
I0
tp1850
a(I524
I0
tp1851
a(I920
I707
tp1852
a(I516
I70
tp1853
a(I864
I734
tp1854
a(I686
I283
tp1855
a(I590
I511
tp1856
a(I554
I0
tp1857
a(I475
I217
tp1858
a(I301
I0
tp1859
a(I342
I0
tp1860
a(I385
I0
tp1861
a(I497
I0
tp1862
a(I524
I0
tp1863
a(I483
I46
tp1864
a(I656
I0
tp1865
a(I681
I88
tp1866
a(I621
I0
tp1867
a(I653
I0
tp1868
a(I708
I0
tp1869
a(I478
I140
tp1870
a(I886
I0
tp1871
a(I1023
I918
tp1872
a(I953
I699
tp1873
a(I999
I962
tp1874
a(I914
I704
tp1875
a(I1023
I995
tp1876
a(I983
I810
tp1877
a(I969
I932
tp1878
a(I1023
I1023
tp1879
a(I843
I658
tp1880
a(I618
I470
tp1881
a(I788
I247
tp1882
a(I1023
I881
tp1883
a(I872
I822
tp1884
a(I372
I135
tp1885
a(I918
I469
tp1886
a(I674
I0
tp1887
a(I900
I427
tp1888
a(I716
I0
tp1889
a(I1023
I759
tp1890
a(I1005
I722
tp1891
a(I1023
I1023
tp1892
a(I1023
I1023
tp1893
a(I371
I268
tp1894
a(I725
I457
tp1895
a(I1023
I1023
tp1896
a(I1023
I1023
tp1897
a(I582
I403
tp1898
a(I1023
I1023
tp1899
a(I1023
I1023
tp1900
a(I1023
I1023
tp1901
a(I1023
I1023
tp1902
a(I778
I551
tp1903
a(I1023
I1023
tp1904
a(I692
I471
tp1905
a(I1023
I1023
tp1906
a(I1023
I1023
tp1907
a(I1023
I1023
tp1908
a(I1023
I1023
tp1909
a(I897
I676
tp1910
a(I559
I320
tp1911
a(I850
I676
tp1912
a(I974
I709
tp1913
a(I541
I290
tp1914
a(I1023
I1023
tp1915
a(I1023
I1023
tp1916
a(I1023
I1023
tp1917
a(I1023
I1023
tp1918
a(I1023
I1023
tp1919
a(I1023
I1023
tp1920
a(I1023
I1023
tp1921
a(I1023
I1023
tp1922
a(I631
I472
tp1923
a(I1023
I922
tp1924
a(I726
I608
tp1925
a(I987
I758
tp1926
a(I559
I347
tp1927
a(I910
I700
tp1928
a(I845
I558
tp1929
a(I561
I300
tp1930
a(I1023
I881
tp1931
a(I1023
I1023
tp1932
a(I1023
I1023
tp1933
a(I605
I441
tp1934
a(I1023
I870
tp1935
a(I790
I529
tp1936
a(I503
I243
tp1937
a(I707
I459
tp1938
a(I1023
I906
tp1939
a(I554
I294
tp1940
a(I1023
I1023
tp1941
a(I1023
I1023
tp1942
a(I534
I118
tp1943
a(I472
I81
tp1944
a(I571
I219
tp1945
a(I579
I0
tp1946
a(I1023
I337
tp1947
a(I366
I72
tp1948
a(I971
I346
tp1949
a(I554
I0
tp1950
a(I817
I0
tp1951
a(I689
I0
tp1952
a(I626
I237
tp1953
a(I572
I0
tp1954
a(I1023
I494
tp1955
a(I458
I43
tp1956
a(I1023
I627
tp1957
a(I658
I0
tp1958
a(I742
I0
tp1959
a(I877
I289
tp1960
a(I796
I0
tp1961
a(I978
I163
tp1962
a(I630
I418
tp1963
a(I685
I14
tp1964
a(I922
I758
tp1965
a(I496
I70
tp1966
a(I814
I0
tp1967
a(I1023
I885
tp1968
a(I521
I76
tp1969
a(I1023
I848
tp1970
a(I277
I216
tp1971
a(I829
I180
tp1972
a(I672
I29
tp1973
a(I1023
I930
tp1974
a(I413
I150
tp1975
a(I1023
I865
tp1976
a(I1023
I1023
tp1977
a(I1023
I1023
tp1978
a(I1023
I1023
tp1979
a(I1023
I1023
tp1980
a(I1023
I1023
tp1981
a(I825
I663
tp1982
a(I1023
I1023
tp1983
a(I1023
I1023
tp1984
a(I827
I760
tp1985
a(I1023
I1023
tp1986
a(I1023
I1023
tp1987
a(I1023
I1023
tp1988
a(I1023
I1023
tp1989
a(I1023
I1023
tp1990
a(I665
I503
tp1991
a(I1023
I1023
tp1992
a(I705
I549
tp1993
a(I1023
I1023
tp1994
a(I1023
I1023
tp1995
a(I1023
I1023
tp1996
a(I771
I698
tp1997
a(I1023
I948
tp1998
a(I1023
I1023
tp1999
a(I757
I685
tp2000
a(I1023
I1010
tp2001
a(I1023
I1023
tp2002
a(I1023
I1023
tp2003
a(I961
I800
tp2004
a(I1023
I1023
tp2005
a(I648
I503
tp2006
a(I1023
I1023
tp2007
a(I1023
I1023
tp2008
a(I1023
I1023
tp2009
asS'STRAIGHT'
p2010
(lp2011
(I1023
I1013
tp2012
a(I1023
I1023
tp2013
a(I664
I565
tp2014
a(I848
I620
tp2015
a(I552
I378
tp2016
a(I1023
I990
tp2017
a(I1023
I1023
tp2018
a(I1023
I1023
tp2019
a(I438
I311
tp2020
a(I636
I462
tp2021
a(I720
I498
tp2022
a(I330
I192
tp2023
a(I866
I705
tp2024
a(I428
I185
tp2025
a(I705
I523
tp2026
a(I736
I531
tp2027
a(I555
I364
tp2028
a(I1013
I803
tp2029
a(I703
I520
tp2030
a(I1023
I1023
tp2031
a(I363
I291
tp2032
a(I812
I488
tp2033
a(I519
I0
tp2034
a(I796
I166
tp2035
a(I417
I179
tp2036
a(I1023
I464
tp2037
a(I545
I495
tp2038
a(I474
I0
tp2039
a(I1023
I518
tp2040
a(I294
I198
tp2041
a(I404
I0
tp2042
a(I421
I181
tp2043
a(I370
I0
tp2044
a(I409
I0
tp2045
a(I442
I0
tp2046
a(I672
I369
tp2047
a(I660
I0
tp2048
a(I1023
I909
tp2049
a(I478
I93
tp2050
a(I1023
I858
tp2051
a(I424
I85
tp2052
a(I1023
I560
tp2053
a(I410
I357
tp2054
a(I642
I9
tp2055
a(I1023
I887
tp2056
a(I586
I52
tp2057
a(I559
I286
tp2058
a(I489
I0
tp2059
a(I1023
I761
tp2060
a(I624
I160
tp2061
a(I1023
I1023
tp2062
a(I474
I419
tp2063
a(I1023
I571
tp2064
a(I1023
I1023
tp2065
a(I1023
I1023
tp2066
a(I1023
I1023
tp2067
a(I734
I677
tp2068
a(I675
I376
tp2069
a(I1023
I1023
tp2070
a(I1023
I1023
tp2071
a(I1023
I1023
tp2072
a(I1023
I1023
tp2073
a(I987
I977
tp2074
a(I1023
I1023
tp2075
a(I1023
I1023
tp2076
a(I375
I144
tp2077
a(I1023
I951
tp2078
a(I413
I352
tp2079
a(I1023
I402
tp2080
a(I869
I836
tp2081
a(I1023
I1023
tp2082
a(I998
I1004
tp2083
a(I1023
I1023
tp2084
a(I1023
I1023
tp2085
a(I1023
I1023
tp2086
a(I1023
I1023
tp2087
a(I1023
I1023
tp2088
a(I1023
I1023
tp2089
a(I578
I472
tp2090
a(I983
I873
tp2091
a(I581
I368
tp2092
a(I1023
I1023
tp2093
a(I1023
I1023
tp2094
a(I538
I409
tp2095
a(I1023
I1023
tp2096
a(I809
I741
tp2097
a(I742
I644
tp2098
a(I1023
I1023
tp2099
a(I1023
I1023
tp2100
a(I1023
I1023
tp2101
a(I651
I555
tp2102
a(I988
I884
tp2103
a(I1023
I1023
tp2104
a(I1023
I1023
tp2105
a(I1023
I1021
tp2106
a(I1023
I1023
tp2107
a(I1023
I1023
tp2108
a(I1023
I1023
tp2109
a(I1023
I1023
tp2110
a(I1023
I1023
tp2111
a(I437
I104
tp2112
a(I1023
I603
tp2113
a(I459
I40
tp2114
a(I916
I369
tp2115
a(I281
I145
tp2116
a(I600
I0
tp2117
a(I791
I0
tp2118
a(I1023
I859
tp2119
a(I337
I152
tp2120
a(I1023
I797
tp2121
a(I314
I116
tp2122
a(I1023
I792
tp2123
a(I1023
I1023
tp2124
a(I1023
I1023
tp2125
a(I597
I548
tp2126
a(I633
I149
tp2127
a(I755
I635
tp2128
a(I582
I12
tp2129
a(I1023
I1023
tp2130
a(I586
I54
tp2131
a(I1023
I931
tp2132
a(I391
I113
tp2133
a(I857
I487
tp2134
a(I546
I36
tp2135
a(I1023
I621
tp2136
a(I599
I116
tp2137
a(I1023
I548
tp2138
a(I583
I0
tp2139
a(I1023
I672
tp2140
a(I363
I313
tp2141
a(I795
I146
tp2142
a(I759
I645
tp2143
a(I554
I14
tp2144
a(I742
I314
tp2145
a(I537
I195
tp2146
a(I1023
I516
tp2147
a(I1023
I1023
tp2148
a(I1023
I1023
tp2149
a(I1023
I1023
tp2150
a(I1023
I1023
tp2151
a(I325
I134
tp2152
a(I652
I239
tp2153
a(I451
I307
tp2154
a(I1023
I408
tp2155
a(I417
I328
tp2156
a(I907
I492
tp2157
a(I572
I527
tp2158
a(I715
I175
tp2159
a(I674
I547
tp2160
a(I725
I0
tp2161
a(I846
I523
tp2162
a(I647
I0
tp2163
a(I847
I479
tp2164
a(I697
I0
tp2165
a(I879
I586
tp2166
a(I599
I305
tp2167
a(I512
I416
tp2168
a(I1004
I485
tp2169
a(I315
I232
tp2170
a(I1023
I892
tp2171
a(I463
I160
tp2172
a(I712
I639
tp2173
a(I700
I424
tp2174
a(I505
I449
tp2175
a(I1001
I700
tp2176
a(I333
I305
tp2177
a(I1023
I1023
tp2178
a(I1023
I1023
tp2179
a(I373
I375
tp2180
a(I1023
I1023
tp2181
a(I1023
I1023
tp2182
a(I323
I325
tp2183
a(I1023
I1023
tp2184
a(I1023
I1023
tp2185
a(I1023
I1023
tp2186
a(I1023
I1023
tp2187
a(I1023
I1023
tp2188
a(I1023
I1023
tp2189
a(I1023
I1023
tp2190
a(I1023
I1023
tp2191
a(I1023
I1023
tp2192
a(I1023
I1023
tp2193
a(I1023
I1023
tp2194
a(I1023
I1023
tp2195
a(I1023
I1023
tp2196
a(I1023
I1023
tp2197
a(I231
I240
tp2198
a(I1023
I1023
tp2199
a(I1023
I1023
tp2200
a(I1023
I1023
tp2201
a(I1023
I1023
tp2202
a(I1023
I1023
tp2203
a(I947
I948
tp2204
a(I196
I199
tp2205
a(I1023
I1023
tp2206
a(I1023
I1023
tp2207
a(I1023
I1023
tp2208
a(I1023
I1023
tp2209
a(I1023
I1023
tp2210
a(I1023
I1023
tp2211
a(I1023
I1023
tp2212
a(I1023
I1023
tp2213
a(I186
I189
tp2214
a(I1023
I1023
tp2215
a(I1023
I1023
tp2216
a(I224
I227
tp2217
a(I1023
I1023
tp2218
a(I1023
I1023
tp2219
a(I1023
I1023
tp2220
a(I1023
I1023
tp2221
a(I1023
I1023
tp2222
a(I1023
I1023
tp2223
a(I1023
I1023
tp2224
a(I1023
I1023
tp2225
a(I1023
I1023
tp2226
a(I1023
I1023
tp2227
a(I1023
I1023
tp2228
a(I1023
I1023
tp2229
a(I1023
I1023
tp2230
a(I1023
I1023
tp2231
a(I1023
I1023
tp2232
a(I1023
I1023
tp2233
a(I1023
I1023
tp2234
a(I1023
I1023
tp2235
a(I709
I711
tp2236
a(I147
I151
tp2237
a(I1023
I1023
tp2238
a(I1023
I1023
tp2239
a(I1023
I1023
tp2240
a(I427
I429
tp2241
a(I315
I317
tp2242
a(I583
I577
tp2243
a(I137
I109
tp2244
a(I1023
I1023
tp2245
a(I1023
I1023
tp2246
a(I1023
I1023
tp2247
a(I1023
I1023
tp2248
a(I1023
I1023
tp2249
a(I1023
I1023
tp2250
a(I1023
I1023
tp2251
a(I529
I531
tp2252
a(I110
I113
tp2253
a(I1023
I1023
tp2254
a(I1023
I1023
tp2255
a(I1023
I1023
tp2256
a(I1023
I1023
tp2257
a(I1023
I1023
tp2258
a(I181
I184
tp2259
a(I982
I966
tp2260
a(I1023
I1023
tp2261
a(I1023
I1023
tp2262
a(I1023
I1023
tp2263
a(I1023
I1023
tp2264
a(I1023
I1023
tp2265
a(I1019
I1018
tp2266
a(I158
I162
tp2267
a(I1023
I1013
tp2268
a(I1023
I1023
tp2269
a(I1023
I1023
tp2270
a(I592
I595
tp2271
a(I122
I126
tp2272
a(I1023
I1023
tp2273
a(I567
I570
tp2274
a(I116
I120
tp2275
a(I939
I930
tp2276
a(I189
I191
tp2277
a(I1023
I1020
tp2278
a(I1023
I1023
tp2279
a(I1023
I1023
tp2280
a(I343
I345
tp2281
a(I519
I513
tp2282
a(I1023
I1023
tp2283
a(I1023
I1023
tp2284
a(I703
I706
tp2285
a(I145
I148
tp2286
a(I1023
I1023
tp2287
a(I1023
I1023
tp2288
a(I1023
I1023
tp2289
a(I1023
I1023
tp2290
a(I1023
I1023
tp2291
a(I400
I403
tp2292
a(I342
I342
tp2293
a(I1023
I1023
tp2294
a(I1023
I1023
tp2295
a(I1023
I1023
tp2296
a(I230
I233
tp2297
a(I842
I828
tp2298
a(I1023
I1023
tp2299
a(I502
I505
tp2300
a(I186
I194
tp2301
a(I1023
I1023
tp2302
a(I670
I673
tp2303
a(I138
I141
tp2304
a(I1023
I1023
tp2305
a(I1023
I1023
tp2306
a(I1023
I1023
tp2307
a(I467
I469
tp2308
a(I286
I288
tp2309
a(I1023
I1023
tp2310
a(I1023
I1023
tp2311
a(I1023
I1023
tp2312
a(I1023
I1023
tp2313
a(I822
I824
tp2314
a(I170
I173
tp2315
a(I1023
I1023
tp2316
a(I1023
I1023
tp2317
a(I1023
I1023
tp2318
a(I1023
I1023
tp2319
a(I1023
I1023
tp2320
a(I1023
I1023
tp2321
a(I1023
I1023
tp2322
a(I1023
I1023
tp2323
a(I1023
I1023
tp2324
a(I1023
I1023
tp2325
a(I1023
I1023
tp2326
a(I253
I256
tp2327
a(I611
I601
tp2328
a(I1023
I1023
tp2329
a(I1023
I1023
tp2330
a(I1023
I1023
tp2331
a(I255
I258
tp2332
a(I620
I610
tp2333
a(I1023
I1023
tp2334
a(I259
I262
tp2335
a(I675
I664
tp2336
a(I1023
I1023
tp2337
a(I412
I414
tp2338
a(I309
I310
tp2339
a(I1023
I1023
tp2340
a(I1023
I1023
tp2341
a(I1023
I1023
tp2342
a(I292
I295
tp2343
a(I612
I603
tp2344
a(I1023
I1023
tp2345
a(I725
I728
tp2346
a(I149
I153
tp2347
a(I1023
I1023
tp2348
a(I1023
I1023
tp2349
a(I1023
I1023
tp2350
a(I314
I317
tp2351
a(I56
I60
tp2352
a(I1023
I1023
tp2353
a(I187
I188
tp2354
a(I579
I570
tp2355
a(I406
I402
tp2356
a(I77
I80
tp2357
a(I1023
I1023
tp2358
a(I1023
I1023
tp2359
a(I1023
I1023
tp2360
a(I467
I472
tp2361
a(I95
I99
tp2362
a(I1010
I995
tp2363
a(I1023
I1023
tp2364
a(I1023
I1023
tp2365
a(I1023
I1023
tp2366
a(I1023
I1023
tp2367
a(I1023
I1023
tp2368
a(I1023
I1023
tp2369
a(I1023
I1023
tp2370
a(I1023
I1023
tp2371
a(I1023
I1023
tp2372
a(I1010
I1010
tp2373
a(I157
I160
tp2374
a(I710
I697
tp2375
a(I1023
I1023
tp2376
a(I1023
I1023
tp2377
a(I1023
I1023
tp2378
a(I1023
I1023
tp2379
a(I1023
I1023
tp2380
a(I1023
I1023
tp2381
a(I1023
I1023
tp2382
a(I1023
I1023
tp2383
a(I1023
I1023
tp2384
a(I1023
I1023
tp2385
a(I1023
I1023
tp2386
a(I1023
I1023
tp2387
a(I658
I666
tp2388
a(I137
I141
tp2389
a(I616
I605
tp2390
a(I450
I448
tp2391
a(I88
I91
tp2392
a(I872
I855
tp2393
a(I302
I301
tp2394
a(I204
I206
tp2395
a(I548
I540
tp2396
a(I109
I111
tp2397
a(I1023
I1023
tp2398
a(I173
I175
tp2399
a(I868
I853
tp2400
a(I354
I355
tp2401
a(I327
I328
tp2402
a(I679
I681
tp2403
a(I138
I141
tp2404
a(I1023
I1023
tp2405
a(I1023
I1023
tp2406
a(I1023
I1023
tp2407
a(I1023
I1023
tp2408
a(I1023
I1023
tp2409
a(I1023
I1023
tp2410
a(I1023
I1023
tp2411
a(I1023
I1023
tp2412
a(I1023
I1023
tp2413
a(I1023
I1023
tp2414
a(I1023
I1023
tp2415
a(I1023
I1023
tp2416
a(I1023
I1023
tp2417
a(I1023
I1023
tp2418
a(I1023
I1023
tp2419
a(I1023
I1023
tp2420
a(I1023
I1023
tp2421
a(I1023
I1023
tp2422
a(I1023
I1023
tp2423
a(I1023
I1023
tp2424
a(I1023
I1023
tp2425
a(I1023
I1023
tp2426
a(I1023
I1023
tp2427
a(I1023
I1023
tp2428
a(I1023
I1023
tp2429
a(I1023
I1023
tp2430
a(I1023
I1023
tp2431
a(I1023
I1023
tp2432
a(I183
I187
tp2433
a(I330
I329
tp2434
a(I564
I558
tp2435
a(I113
I115
tp2436
a(I896
I879
tp2437
a(I1023
I1023
tp2438
a(I189
I192
tp2439
a(I585
I576
tp2440
a(I472
I474
tp2441
a(I93
I97
tp2442
a(I995
I979
tp2443
a(I254
I254
tp2444
a(I520
I512
tp2445
a(I1023
I1023
tp2446
a(I1023
I1023
tp2447
a(I1023
I1023
tp2448
a(I1023
I1023
tp2449
a(I1023
I1023
tp2450
a(I1023
I1023
tp2451
a(I1023
I1023
tp2452
a(I1023
I1023
tp2453
a(I1023
I1023
tp2454
a(I1023
I1023
tp2455
a(I1023
I1023
tp2456
a(I1023
I1023
tp2457
a(I1023
I1023
tp2458
a(I1023
I1023
tp2459
a(I1023
I1023
tp2460
a(I1023
I1023
tp2461
a(I1023
I1023
tp2462
a(I1023
I1023
tp2463
a(I1023
I1023
tp2464
a(I1023
I1023
tp2465
a(I1023
I1023
tp2466
a(I1023
I1023
tp2467
a(I237
I241
tp2468
a(I59
I71
tp2469
a(I1023
I1023
tp2470
a(I163
I165
tp2471
a(I579
I570
tp2472
a(I404
I400
tp2473
a(I76
I78
tp2474
a(I1022
I1006
tp2475
a(I189
I190
tp2476
a(I679
I667
tp2477
a(I479
I486
tp2478
a(I94
I99
tp2479
a(I1023
I1023
tp2480
a(I167
I168
tp2481
a(I948
I931
tp2482
a(I1023
I1023
tp2483
a(I1023
I1023
tp2484
a(I1023
I1023
tp2485
a(I1023
I1023
tp2486
a(I1023
I1023
tp2487
a(I1023
I1023
tp2488
a(I1023
I1023
tp2489
a(I1023
I1023
tp2490
a(I1023
I1023
tp2491
a(I1023
I1023
tp2492
a(I1023
I1023
tp2493
a(I1023
I1023
tp2494
a(I1023
I1023
tp2495
a(I1023
I1023
tp2496
a(I1023
I1023
tp2497
a(I1023
I1023
tp2498
a(I1023
I1023
tp2499
a(I1023
I1023
tp2500
a(I1023
I1023
tp2501
a(I1023
I1023
tp2502
a(I1023
I1023
tp2503
a(I1023
I1023
tp2504
a(I1023
I1023
tp2505
a(I165
I169
tp2506
a(I432
I428
tp2507
a(I1023
I1023
tp2508
a(I1023
I1023
tp2509
a(I1023
I1023
tp2510
a(I1023
I1023
tp2511
asS'DOWN-LEFT'
p2512
(lp2513
(I1023
I1023
tp2514
a(I1023
I1023
tp2515
a(I932
I941
tp2516
a(I193
I197
tp2517
a(I291
I291
tp2518
a(I1023
I1023
tp2519
a(I209
I213
tp2520
a(I361
I360
tp2521
a(I1023
I1023
tp2522
a(I351
I356
tp2523
a(I63
I68
tp2524
a(I1023
I1023
tp2525
a(I993
I1002
tp2526
a(I176
I181
tp2527
a(I714
I702
tp2528
a(I1023
I1023
tp2529
a(I1023
I1023
tp2530
a(I1023
I1023
tp2531
a(I1023
I1023
tp2532
a(I1023
I1023
tp2533
a(I1023
I1023
tp2534
a(I1023
I1023
tp2535
a(I1023
I1023
tp2536
a(I1023
I1023
tp2537
a(I1023
I1023
tp2538
a(I1023
I1023
tp2539
a(I1023
I1023
tp2540
a(I1023
I1023
tp2541
a(I1023
I1023
tp2542
a(I1023
I1023
tp2543
a(I590
I598
tp2544
a(I122
I126
tp2545
a(I735
I722
tp2546
a(I1023
I1023
tp2547
a(I573
I576
tp2548
a(I117
I121
tp2549
a(I915
I800
tp2550
a(I607
I609
tp2551
a(I123
I127
tp2552
a(I961
I944
tp2553
a(I301
I303
tp2554
a(I303
I304
tp2555
a(I1023
I1023
tp2556
a(I182
I187
tp2557
a(I819
I806
tp2558
a(I1023
I1023
tp2559
a(I1023
I1023
tp2560
a(I1023
I1023
tp2561
a(I1023
I1023
tp2562
a(I1023
I1023
tp2563
a(I1023
I1023
tp2564
a(I1023
I1023
tp2565
a(I1023
I1023
tp2566
a(I1023
I1023
tp2567
a(I1023
I1023
tp2568
a(I1023
I1023
tp2569
a(I1023
I1023
tp2570
a(I1023
I1023
tp2571
a(I1023
I1023
tp2572
a(I1023
I1023
tp2573
a(I172
I177
tp2574
a(I579
I571
tp2575
a(I1023
I1023
tp2576
a(I1023
I1023
tp2577
a(I1023
I1023
tp2578
a(I1023
I1023
tp2579
a(I1023
I1023
tp2580
a(I1023
I1023
tp2581
a(I1023
I1023
tp2582
a(I1023
I1023
tp2583
a(I1023
I1023
tp2584
a(I1023
I1023
tp2585
a(I1023
I1023
tp2586
a(I560
I568
tp2587
a(I116
I120
tp2588
a(I756
I742
tp2589
a(I1023
I1023
tp2590
a(I1023
I1023
tp2591
a(I1023
I1023
tp2592
a(I1023
I1023
tp2593
a(I1023
I1023
tp2594
a(I1023
I1023
tp2595
a(I916
I925
tp2596
a(I190
I193
tp2597
a(I307
I307
tp2598
a(I1023
I1023
tp2599
a(I575
I583
tp2600
a(I118
I122
tp2601
a(I853
I838
tp2602
a(I1023
I1023
tp2603
a(I232
I242
tp2604
a(I353
I354
tp2605
a(I1023
I1023
tp2606
a(I445
I458
tp2607
a(I88
I94
tp2608
a(I999
I985
tp2609
a(I1023
I1023
tp2610
a(I1023
I1023
tp2611
a(I1023
I1023
tp2612
a(I1023
I1023
tp2613
a(I1023
I1023
tp2614
a(I1023
I1023
tp2615
a(I1023
I1023
tp2616
a(I1023
I1023
tp2617
a(I1023
I1023
tp2618
a(I1023
I1023
tp2619
a(I1023
I1023
tp2620
a(I1023
I1023
tp2621
a(I1023
I1023
tp2622
a(I1023
I1023
tp2623
a(I575
I582
tp2624
a(I119
I123
tp2625
a(I755
I741
tp2626
a(I1023
I1023
tp2627
a(I1023
I1023
tp2628
a(I1023
I1023
tp2629
a(I1023
I1023
tp2630
a(I1023
I1023
tp2631
a(I583
I591
tp2632
a(I121
I125
tp2633
a(I766
I752
tp2634
a(I1023
I1023
tp2635
a(I1023
I1023
tp2636
a(I1023
I1023
tp2637
a(I1023
I1023
tp2638
a(I1023
I1023
tp2639
a(I1023
I1023
tp2640
a(I1023
I1023
tp2641
a(I753
I762
tp2642
a(I156
I160
tp2643
a(I478
I471
tp2644
a(I1023
I1023
tp2645
a(I639
I642
tp2646
a(I132
I135
tp2647
a(I801
I668
tp2648
a(I1023
I1023
tp2649
a(I169
I173
tp2650
a(I667
I656
tp2651
a(I1023
I1023
tp2652
a(I437
I445
tp2653
a(I86
I91
tp2654
a(I1021
I1007
tp2655
a(I1023
I1023
tp2656
a(I288
I296
tp2657
a(I342
I343
tp2658
a(I1023
I1023
tp2659
a(I253
I259
tp2660
a(I550
I544
tp2661
a(I1023
I1023
tp2662
a(I352
I361
tp2663
a(I325
I327
tp2664
a(I699
I708
tp2665
a(I142
I147
tp2666
a(I1023
I1023
tp2667
a(I469
I485
tp2668
a(I194
I204
tp2669
a(I840
I853
tp2670
a(I171
I176
tp2671
a(I1023
I1023
tp2672
a(I498
I532
tp2673
a(I232
I243
tp2674
a(I787
I798
tp2675
a(I159
I165
tp2676
a(I1023
I1023
tp2677
a(I1008
I1023
tp2678
a(I155
I164
tp2679
a(I1023
I1023
tp2680
a(I1023
I1023
tp2681
a(I217
I227
tp2682
a(I1023
I1023
tp2683
a(I1023
I1023
tp2684
a(I228
I240
tp2685
a(I1013
I1004
tp2686
a(I1023
I1023
tp2687
a(I281
I304
tp2688
a(I848
I843
tp2689
a(I1023
I1023
tp2690
a(I1023
I1023
tp2691
a(I1023
I1023
tp2692
a(I1023
I1023
tp2693
a(I1023
I1023
tp2694
a(I1023
I1023
tp2695
a(I1023
I1023
tp2696
a(I1023
I1023
tp2697
a(I1023
I1023
tp2698
a(I1023
I1023
tp2699
a(I1023
I1023
tp2700
a(I1023
I1023
tp2701
a(I1023
I1023
tp2702
a(I1023
I1023
tp2703
a(I1023
I1023
tp2704
a(I1023
I1023
tp2705
a(I1023
I1023
tp2706
a(I1023
I1023
tp2707
a(I1023
I1023
tp2708
a(I1023
I1023
tp2709
a(I1023
I1023
tp2710
a(I1023
I1023
tp2711
a(I1023
I1023
tp2712
a(I1023
I1023
tp2713
a(I1023
I1023
tp2714
a(I1023
I1023
tp2715
a(I1023
I1023
tp2716
a(I1023
I1023
tp2717
a(I1023
I1023
tp2718
a(I1023
I1023
tp2719
a(I1023
I1023
tp2720
a(I1023
I1023
tp2721
a(I1023
I1023
tp2722
a(I262
I273
tp2723
a(I144
I153
tp2724
a(I1023
I1023
tp2725
a(I1023
I1023
tp2726
a(I1023
I1023
tp2727
a(I1023
I1023
tp2728
a(I1023
I1023
tp2729
a(I1023
I1023
tp2730
a(I1023
I1023
tp2731
a(I1023
I1023
tp2732
a(I214
I229
tp2733
a(I261
I266
tp2734
a(I1023
I1023
tp2735
a(I224
I227
tp2736
a(I459
I0
tp2737
a(I117
I0
tp2738
a(I1023
I998
tp2739
a(I1023
I1023
tp2740
a(I1023
I1023
tp2741
a(I1023
I1023
tp2742
a(I1023
I1023
tp2743
a(I1023
I1023
tp2744
a(I1023
I1023
tp2745
a(I1023
I1023
tp2746
a(I1023
I1023
tp2747
a(I1023
I1023
tp2748
a(I1023
I1023
tp2749
a(I1023
I1023
tp2750
a(I364
I385
tp2751
a(I69
I77
tp2752
a(I944
I930
tp2753
a(I1023
I1023
tp2754
a(I1023
I1023
tp2755
a(I412
I414
tp2756
a(I81
I84
tp2757
a(I950
I933
tp2758
a(I1023
I1023
tp2759
a(I1023
I1023
tp2760
a(I1023
I1023
tp2761
a(I1023
I1023
tp2762
a(I1023
I1023
tp2763
a(I1023
I1023
tp2764
a(I1023
I1023
tp2765
a(I1023
I1023
tp2766
a(I383
I406
tp2767
a(I74
I82
tp2768
a(I877
I864
tp2769
a(I1023
I1023
tp2770
a(I1023
I1023
tp2771
a(I1023
I1023
tp2772
a(I1023
I1023
tp2773
a(I1023
I1023
tp2774
a(I328
I349
tp2775
a(I59
I67
tp2776
a(I1010
I997
tp2777
a(I1023
I1023
tp2778
a(I1023
I1023
tp2779
a(I1023
I1023
tp2780
a(I1023
I1023
tp2781
a(I732
I775
tp2782
a(I152
I163
tp2783
a(I591
I584
tp2784
a(I1023
I1023
tp2785
a(I1023
I1023
tp2786
a(I1023
I1023
tp2787
a(I1023
I1023
tp2788
a(I1023
I1023
tp2789
a(I1023
I1023
tp2790
a(I191
I205
tp2791
a(I374
I374
tp2792
a(I1023
I1023
tp2793
a(I1023
I1023
tp2794
a(I1023
I1023
tp2795
a(I1023
I1023
tp2796
a(I1023
I1023
tp2797
a(I1023
I1023
tp2798
a(I1023
I1023
tp2799
a(I170
I178
tp2800
a(I464
I461
tp2801
a(I1023
I1023
tp2802
a(I1023
I1023
tp2803
a(I1023
I1023
tp2804
a(I1023
I1023
tp2805
a(I1023
I1023
tp2806
a(I1023
I1023
tp2807
a(I373
I386
tp2808
a(I71
I77
tp2809
a(I873
I859
tp2810
a(I1023
I1023
tp2811
a(I1023
I1023
tp2812
a(I1023
I1023
tp2813
a(I1023
I1023
tp2814
a(I445
I458
tp2815
a(I89
I95
tp2816
a(I772
I759
tp2817
a(I1023
I1023
tp2818
a(I1023
I1023
tp2819
a(I1023
I1023
tp2820
a(I1023
I1023
tp2821
a(I1023
I1023
tp2822
a(I644
I665
tp2823
a(I134
I140
tp2824
a(I700
I688
tp2825
a(I985
I993
tp2826
a(I202
I206
tp2827
a(I469
I464
tp2828
a(I1023
I1023
tp2829
a(I1023
I1023
tp2830
a(I1023
I1023
tp2831
a(I1023
I1023
tp2832
a(I1023
I1023
tp2833
a(I1023
I1023
tp2834
a(I1023
I1023
tp2835
a(I1023
I1023
tp2836
a(I1023
I1023
tp2837
a(I272
I282
tp2838
a(I72
I85
tp2839
a(I1023
I1023
tp2840
a(I79
I237
tp2841
a(I530
I524
tp2842
a(I1023
I1023
tp2843
a(I1023
I1023
tp2844
a(I1023
I1023
tp2845
a(I1023
I1023
tp2846
a(I401
I408
tp2847
a(I79
I83
tp2848
a(I1023
I1023
tp2849
a(I896
I912
tp2850
a(I185
I191
tp2851
a(I795
I783
tp2852
a(I1023
I1023
tp2853
a(I1023
I1023
tp2854
a(I1023
I1023
tp2855
a(I1023
I1023
tp2856
a(I1023
I1023
tp2857
a(I1023
I1023
tp2858
a(I1023
I1023
tp2859
a(I1023
I1023
tp2860
a(I1023
I1023
tp2861
a(I1023
I1023
tp2862
a(I1023
I1023
tp2863
a(I1023
I1023
tp2864
a(I1023
I1023
tp2865
a(I1023
I1023
tp2866
a(I1023
I1023
tp2867
a(I1023
I1023
tp2868
a(I649
I657
tp2869
a(I135
I139
tp2870
a(I736
I723
tp2871
a(I1023
I1023
tp2872
a(I1023
I1023
tp2873
a(I1023
I1023
tp2874
a(I1023
I1023
tp2875
a(I1023
I1023
tp2876
a(I1023
I1023
tp2877
a(I269
I272
tp2878
a(I106
I114
tp2879
a(I805
I797
tp2880
a(I163
I165
tp2881
a(I701
I688
tp2882
a(I436
I441
tp2883
a(I85
I89
tp2884
a(I1023
I1023
tp2885
a(I1023
I1023
tp2886
a(I1023
I1023
tp2887
a(I1023
I1023
tp2888
a(I1023
I1023
tp2889
a(I1023
I1023
tp2890
a(I1023
I1023
tp2891
a(I1023
I1023
tp2892
a(I1023
I1023
tp2893
a(I1023
I1023
tp2894
a(I1023
I1023
tp2895
a(I1023
I1023
tp2896
a(I1023
I1023
tp2897
a(I434
I453
tp2898
a(I88
I94
tp2899
a(I812
I799
tp2900
a(I570
I576
tp2901
a(I116
I121
tp2902
a(I973
I958
tp2903
a(I1023
I1023
tp2904
a(I199
I203
tp2905
a(I613
I604
tp2906
a(I1023
I1023
tp2907
a(I1023
I1023
tp2908
a(I1023
I1023
tp2909
a(I1023
I1023
tp2910
a(I1023
I1023
tp2911
a(I1023
I1023
tp2912
a(I1023
I1023
tp2913
a(I1023
I1023
tp2914
a(I1023
I1023
tp2915
a(I1023
I1023
tp2916
a(I1023
I1023
tp2917
a(I1023
I1023
tp2918
a(I277
I288
tp2919
a(I78
I91
tp2920
a(I1023
I1023
tp2921
a(I375
I380
tp2922
a(I71
I75
tp2923
a(I1023
I1023
tp2924
a(I414
I419
tp2925
a(I80
I85
tp2926
a(I1023
I1023
tp2927
a(I185
I187
tp2928
a(I803
I788
tp2929
a(I671
I678
tp2930
a(I137
I142
tp2931
a(I1023
I1023
tp2932
a(I171
I173
tp2933
a(I1012
I996
tp2934
a(I635
I643
tp2935
a(I130
I135
tp2936
a(I1023
I1023
tp2937
a(I1023
I1023
tp2938
a(I1023
I1023
tp2939
a(I1023
I1023
tp2940
a(I1023
I1023
tp2941
a(I1023
I1023
tp2942
a(I1023
I1023
tp2943
a(I1023
I1023
tp2944
a(I1023
I1023
tp2945
a(I1023
I1023
tp2946
a(I1023
I1023
tp2947
a(I1023
I1023
tp2948
a(I1023
I1023
tp2949
a(I1023
I1023
tp2950
a(I1023
I1023
tp2951
a(I1023
I1023
tp2952
a(I1023
I1023
tp2953
a(I1023
I1023
tp2954
a(I1023
I1023
tp2955
a(I1023
I1023
tp2956
a(I1023
I1023
tp2957
a(I1023
I1023
tp2958
a(I1023
I1023
tp2959
a(I266
I269
tp2960
a(I235
I0
tp2961
a(I154
I0
tp2962
a(I1009
I800
tp2963
a(I247
I214
tp2964
a(I505
I487
tp2965
a(I1023
I1023
tp2966
a(I238
I242
tp2967
a(I552
I545
tp2968
a(I1023
I1023
tp2969
a(I887
I901
tp2970
a(I183
I188
tp2971
a(I831
I818
tp2972
a(I1023
I1023
tp2973
a(I177
I183
tp2974
a(I925
I911
tp2975
a(I1023
I1023
tp2976
a(I303
I311
tp2977
a(I529
I525
tp2978
a(I1023
I1023
tp2979
a(I1023
I1023
tp2980
a(I1023
I1023
tp2981
a(I1023
I1023
tp2982
a(I1023
I1023
tp2983
a(I183
I190
tp2984
a(I907
I894
tp2985
a(I654
I665
tp2986
a(I134
I140
tp2987
a(I970
I953
tp2988
a(I194
I195
tp2989
a(I999
I983
tp2990
a(I1023
I1023
tp2991
a(I1023
I1023
tp2992
a(I1023
I1023
tp2993
a(I1023
I1023
tp2994
a(I1023
I1023
tp2995
a(I1023
I1023
tp2996
a(I1023
I1023
tp2997
a(I326
I334
tp2998
a(I411
I410
tp2999
a(I1023
I1023
tp3000
a(I259
I269
tp3001
a(I682
I674
tp3002
a(I1023
I1023
tp3003
a(I631
I654
tp3004
a(I131
I138
tp3005
a(I1023
I1023
tp3006
a(I813
I866
tp3007
a(I168
I180
tp3008
a(I1023
I1023
tp3009
a(I199
I204
tp3010
a(I1023
I1023
tp3011
a(I217
I222
tp3012
a(I1023
I704
tp3013
asS'UP-LEFT'
p3014
(lp3015
(I828
I862
tp3016
a(I170
I179
tp3017
a(I1023
I1023
tp3018
a(I1023
I1023
tp3019
a(I1023
I1023
tp3020
a(I1023
I1023
tp3021
a(I1023
I1023
tp3022
a(I393
I415
tp3023
a(I467
I469
tp3024
a(I1023
I1023
tp3025
a(I250
I267
tp3026
a(I896
I889
tp3027
a(I1023
I1023
tp3028
a(I1023
I1023
tp3029
a(I1023
I1023
tp3030
a(I1023
I1023
tp3031
a(I1023
I1023
tp3032
a(I1023
I1023
tp3033
a(I1023
I1023
tp3034
a(I1023
I1023
tp3035
a(I1023
I1023
tp3036
a(I1023
I1023
tp3037
a(I848
I882
tp3038
a(I176
I186
tp3039
a(I1007
I995
tp3040
a(I991
I1023
tp3041
a(I177
I186
tp3042
a(I1023
I1023
tp3043
a(I1023
I1023
tp3044
a(I498
I542
tp3045
a(I144
I162
tp3046
a(I1023
I1023
tp3047
a(I864
I951
tp3048
a(I180
I198
tp3049
a(I1023
I1023
tp3050
a(I531
I570
tp3051
a(I178
I194
tp3052
a(I1023
I1023
tp3053
a(I311
I324
tp3054
a(I724
I627
tp3055
a(I1023
I1023
tp3056
a(I192
I201
tp3057
a(I1023
I1023
tp3058
a(I622
I659
tp3059
a(I177
I118
tp3060
a(I1023
I897
tp3061
a(I182
I162
tp3062
a(I306
I0
tp3063
a(I1023
I1023
tp3064
a(I473
I515
tp3065
a(I464
I472
tp3066
a(I1023
I1023
tp3067
a(I1023
I1023
tp3068
a(I1023
I1023
tp3069
a(I1023
I1023
tp3070
a(I356
I391
tp3071
a(I670
I672
tp3072
a(I596
I611
tp3073
a(I277
I284
tp3074
a(I1023
I1023
tp3075
a(I1023
I1023
tp3076
a(I1023
I1023
tp3077
a(I1023
I1023
tp3078
a(I1023
I1023
tp3079
a(I1023
I1023
tp3080
a(I1023
I1023
tp3081
a(I1023
I1023
tp3082
a(I1023
I1023
tp3083
a(I1023
I1023
tp3084
a(I1023
I1023
tp3085
a(I1023
I1023
tp3086
a(I1023
I1023
tp3087
a(I1023
I1023
tp3088
a(I1023
I1023
tp3089
a(I1023
I1023
tp3090
a(I1023
I1023
tp3091
a(I1023
I1023
tp3092
a(I1023
I1023
tp3093
a(I1023
I1023
tp3094
a(I1023
I1023
tp3095
a(I1023
I1023
tp3096
a(I1023
I1023
tp3097
a(I1023
I1023
tp3098
a(I1023
I1023
tp3099
a(I1023
I1023
tp3100
a(I1023
I1023
tp3101
a(I1023
I1023
tp3102
a(I1023
I1023
tp3103
a(I1023
I1023
tp3104
a(I1023
I1023
tp3105
a(I1023
I1023
tp3106
a(I647
I718
tp3107
a(I136
I151
tp3108
a(I839
I830
tp3109
a(I1023
I1023
tp3110
a(I791
I850
tp3111
a(I164
I178
tp3112
a(I773
I763
tp3113
a(I1023
I1023
tp3114
a(I195
I205
tp3115
a(I714
I705
tp3116
a(I1023
I1023
tp3117
a(I546
I599
tp3118
a(I113
I126
tp3119
a(I1023
I1023
tp3120
a(I1023
I1023
tp3121
a(I1023
I1023
tp3122
a(I1023
I1023
tp3123
a(I1023
I1023
tp3124
a(I1023
I1023
tp3125
a(I1023
I1023
tp3126
a(I1023
I1023
tp3127
a(I1023
I1023
tp3128
a(I1023
I1023
tp3129
a(I1023
I1023
tp3130
a(I1023
I1023
tp3131
a(I1023
I1023
tp3132
a(I402
I430
tp3133
a(I80
I88
tp3134
a(I1010
I998
tp3135
a(I1023
I1023
tp3136
a(I261
I278
tp3137
a(I368
I370
tp3138
a(I1023
I1023
tp3139
a(I314
I327
tp3140
a(I315
I240
tp3141
a(I653
I626
tp3142
a(I132
I130
tp3143
a(I207
I0
tp3144
a(I1023
I817
tp3145
a(I491
I511
tp3146
a(I109
I125
tp3147
a(I1023
I1023
tp3148
a(I370
I393
tp3149
a(I405
I409
tp3150
a(I1023
I1023
tp3151
a(I741
I805
tp3152
a(I154
I168
tp3153
a(I1023
I1023
tp3154
a(I1023
I1023
tp3155
a(I1023
I1023
tp3156
a(I1023
I1023
tp3157
a(I1023
I1023
tp3158
a(I1023
I1023
tp3159
a(I1023
I1023
tp3160
a(I1023
I1023
tp3161
a(I1023
I1023
tp3162
a(I1023
I1023
tp3163
a(I1023
I1023
tp3164
a(I1023
I1023
tp3165
a(I1023
I1023
tp3166
a(I1023
I1023
tp3167
a(I1023
I1023
tp3168
a(I1023
I1023
tp3169
a(I1023
I1023
tp3170
a(I1023
I1023
tp3171
a(I1009
I1023
tp3172
a(I160
I185
tp3173
a(I773
I770
tp3174
a(I844
I864
tp3175
a(I174
I180
tp3176
a(I862
I795
tp3177
a(I633
I651
tp3178
a(I130
I136
tp3179
a(I207
I0
tp3180
a(I1023
I838
tp3181
a(I1023
I1023
tp3182
a(I1023
I1023
tp3183
a(I308
I322
tp3184
a(I478
I477
tp3185
a(I1023
I1023
tp3186
a(I1023
I1023
tp3187
a(I1023
I1023
tp3188
a(I1023
I1023
tp3189
a(I1023
I1023
tp3190
a(I1023
I1023
tp3191
a(I1023
I1023
tp3192
a(I1023
I1023
tp3193
a(I1023
I1023
tp3194
a(I1023
I1023
tp3195
a(I1023
I1023
tp3196
a(I1023
I1023
tp3197
a(I1023
I1023
tp3198
a(I181
I216
tp3199
a(I654
I656
tp3200
a(I1023
I1023
tp3201
a(I1023
I1023
tp3202
a(I1023
I1023
tp3203
a(I1023
I1023
tp3204
a(I1023
I1023
tp3205
a(I483
I539
tp3206
a(I100
I113
tp3207
a(I1023
I1023
tp3208
a(I353
I362
tp3209
a(I207
I214
tp3210
a(I1023
I1023
tp3211
a(I1023
I1023
tp3212
a(I1023
I1023
tp3213
a(I1023
I1023
tp3214
a(I1023
I1023
tp3215
a(I1023
I1023
tp3216
a(I1023
I1023
tp3217
a(I1023
I1023
tp3218
a(I1023
I1023
tp3219
a(I831
I1016
tp3220
a(I153
I183
tp3221
a(I747
I747
tp3222
a(I618
I627
tp3223
a(I127
I132
tp3224
a(I1023
I1023
tp3225
a(I562
I582
tp3226
a(I115
I122
tp3227
a(I1023
I1023
tp3228
a(I1023
I1023
tp3229
a(I1023
I1023
tp3230
a(I1023
I1023
tp3231
a(I1023
I1023
tp3232
a(I1023
I1023
tp3233
a(I1023
I1023
tp3234
a(I1023
I1023
tp3235
a(I1023
I1023
tp3236
a(I294
I318
tp3237
a(I258
I266
tp3238
a(I1023
I1023
tp3239
a(I1023
I1023
tp3240
a(I1023
I1023
tp3241
a(I1023
I1023
tp3242
a(I1023
I1023
tp3243
a(I1023
I1023
tp3244
a(I374
I401
tp3245
a(I73
I81
tp3246
a(I1023
I1023
tp3247
a(I1023
I1023
tp3248
a(I1023
I1023
tp3249
a(I1023
I1023
tp3250
a(I1023
I1023
tp3251
a(I1012
I1023
tp3252
a(I158
I173
tp3253
a(I755
I747
tp3254
a(I1023
I1023
tp3255
a(I1023
I1023
tp3256
a(I1023
I1023
tp3257
a(I1023
I1023
tp3258
a(I1023
I1023
tp3259
a(I161
I173
tp3260
a(I751
I742
tp3261
a(I458
I466
tp3262
a(I91
I96
tp3263
a(I1023
I1023
tp3264
a(I1023
I1023
tp3265
a(I1023
I1023
tp3266
a(I1023
I1023
tp3267
a(I1023
I1023
tp3268
a(I1023
I1023
tp3269
a(I747
I814
tp3270
a(I156
I171
tp3271
a(I816
I807
tp3272
a(I1023
I1023
tp3273
a(I1023
I1023
tp3274
a(I1023
I1023
tp3275
a(I1023
I1023
tp3276
a(I1023
I1023
tp3277
a(I259
I279
tp3278
a(I371
I374
tp3279
a(I1023
I1023
tp3280
a(I1023
I1023
tp3281
a(I1023
I1023
tp3282
a(I549
I556
tp3283
a(I114
I118
tp3284
a(I1023
I1023
tp3285
a(I567
I582
tp3286
a(I117
I123
tp3287
a(I1023
I1023
tp3288
a(I292
I295
tp3289
a(I518
I199
tp3290
a(I583
I479
tp3291
a(I116
I100
tp3292
a(I1023
I1023
tp3293
a(I1023
I1023
tp3294
a(I1023
I1023
tp3295
a(I1023
I1023
tp3296
a(I1023
I1023
tp3297
a(I1023
I1023
tp3298
a(I1023
I1023
tp3299
a(I1023
I1023
tp3300
a(I1023
I1023
tp3301
a(I1023
I1023
tp3302
a(I1023
I1023
tp3303
a(I1023
I1023
tp3304
a(I1023
I1023
tp3305
a(I438
I516
tp3306
a(I90
I108
tp3307
a(I1023
I1023
tp3308
a(I1023
I1023
tp3309
a(I1023
I1023
tp3310
a(I1023
I1023
tp3311
a(I1023
I1023
tp3312
a(I1023
I1023
tp3313
a(I1023
I1023
tp3314
a(I232
I237
tp3315
a(I474
I469
tp3316
a(I1023
I1023
tp3317
a(I1023
I1023
tp3318
a(I1023
I1023
tp3319
a(I404
I432
tp3320
a(I80
I89
tp3321
a(I1023
I1023
tp3322
a(I179
I180
tp3323
a(I840
I825
tp3324
a(I345
I344
tp3325
a(I347
I346
tp3326
a(I1023
I1023
tp3327
a(I441
I456
tp3328
a(I151
I162
tp3329
a(I1023
I1023
tp3330
a(I1023
I1023
tp3331
a(I1023
I1023
tp3332
a(I1023
I1023
tp3333
a(I1023
I1023
tp3334
a(I1023
I1023
tp3335
a(I1023
I1023
tp3336
a(I1023
I1023
tp3337
a(I1023
I1023
tp3338
a(I1023
I1023
tp3339
a(I1023
I1023
tp3340
a(I701
I779
tp3341
a(I147
I164
tp3342
a(I806
I0
tp3343
a(I740
I0
tp3344
a(I690
I0
tp3345
a(I644
I0
tp3346
a(I600
I0
tp3347
a(I566
I0
tp3348
a(I634
I0
tp3349
a(I710
I0
tp3350
a(I774
I0
tp3351
a(I845
I0
tp3352
a(I917
I0
tp3353
a(I976
I0
tp3354
a(I1023
I0
tp3355
a(I979
I0
tp3356
a(I905
I0
tp3357
a(I855
I0
tp3358
a(I803
I0
tp3359
a(I760
I0
tp3360
a(I718
I0
tp3361
a(I669
I0
tp3362
a(I631
I0
tp3363
a(I674
I0
tp3364
a(I762
I0
tp3365
a(I832
I0
tp3366
a(I909
I0
tp3367
a(I993
I0
tp3368
a(I1023
I0
tp3369
a(I993
I0
tp3370
a(I697
I105
tp3371
a(I839
I0
tp3372
a(I924
I0
tp3373
a(I1021
I0
tp3374
a(I662
I198
tp3375
a(I764
I0
tp3376
a(I859
I0
tp3377
a(I955
I93
tp3378
a(I891
I0
tp3379
a(I809
I0
tp3380
a(I658
I64
tp3381
a(I905
I0
tp3382
a(I1002
I0
tp3383
a(I1023
I0
tp3384
a(I642
I114
tp3385
a(I1023
I0
tp3386
a(I1011
I0
tp3387
a(I751
I0
tp3388
a(I668
I124
tp3389
a(I1023
I0
tp3390
a(I784
I268
tp3391
a(I655
I0
tp3392
a(I664
I91
tp3393
a(I899
I169
tp3394
a(I959
I0
tp3395
a(I879
I0
tp3396
a(I645
I243
tp3397
a(I656
I3
tp3398
a(I677
I94
tp3399
a(I922
I118
tp3400
a(I1023
I0
tp3401
a(I880
I387
tp3402
a(I853
I0
tp3403
a(I775
I349
tp3404
a(I750
I0
tp3405
a(I683
I311
tp3406
a(I661
I0
tp3407
a(I585
I265
tp3408
a(I691
I0
tp3409
a(I572
I140
tp3410
a(I943
I85
tp3411
a(I716
I71
tp3412
a(I939
I271
tp3413
a(I964
I0
tp3414
a(I1023
I404
tp3415
a(I446
I279
tp3416
a(I1023
I1023
tp3417
a(I458
I439
tp3418
a(I1023
I1023
tp3419
a(I615
I612
tp3420
a(I499
I503
tp3421
a(I1023
I1023
tp3422
a(I409
I411
tp3423
a(I803
I755
tp3424
a(I1023
I543
tp3425
a(I584
I585
tp3426
a(I1023
I1023
tp3427
a(I499
I501
tp3428
a(I1023
I1023
tp3429
a(I800
I691
tp3430
a(I918
I920
tp3431
a(I874
I737
tp3432
a(I365
I342
tp3433
a(I1023
I972
tp3434
a(I895
I420
tp3435
a(I506
I443
tp3436
a(I1023
I1023
tp3437
a(I507
I509
tp3438
a(I880
I871
tp3439
a(I911
I410
tp3440
a(I1023
I1023
tp3441
a(I779
I771
tp3442
a(I359
I358
tp3443
a(I1023
I931
tp3444
a(I693
I505
tp3445
a(I562
I556
tp3446
a(I1023
I1023
tp3447
a(I683
I685
tp3448
a(I1023
I1023
tp3449
a(I804
I233
tp3450
a(I701
I654
tp3451
a(I1023
I916
tp3452
a(I459
I461
tp3453
a(I1023
I1023
tp3454
a(I360
I362
tp3455
a(I828
I831
tp3456
a(I903
I625
tp3457
a(I481
I472
tp3458
a(I1023
I751
tp3459
a(I448
I294
tp3460
a(I1023
I1023
tp3461
a(I710
I674
tp3462
a(I881
I883
tp3463
a(I830
I821
tp3464
a(I572
I576
tp3465
a(I1023
I1023
tp3466
a(I351
I354
tp3467
a(I1023
I1023
tp3468
a(I1023
I1023
tp3469
a(I1023
I1023
tp3470
a(I893
I883
tp3471
a(I338
I339
tp3472
a(I679
I665
tp3473
a(I1009
I839
tp3474
a(I418
I227
tp3475
a(I783
I734
tp3476
a(I913
I743
tp3477
a(I896
I897
tp3478
a(I760
I752
tp3479
a(I716
I718
tp3480
a(I938
I927
tp3481
a(I346
I349
tp3482
a(I1023
I1023
tp3483
a(I666
I659
tp3484
a(I1023
I1023
tp3485
a(I766
I759
tp3486
a(I367
I367
tp3487
a(I923
I693
tp3488
a(I869
I0
tp3489
a(I927
I631
tp3490
a(I894
I546
tp3491
a(I918
I918
tp3492
a(I724
I716
tp3493
a(I848
I850
tp3494
a(I789
I725
tp3495
a(I324
I311
tp3496
a(I622
I55
tp3497
a(I667
I458
tp3498
a(I1023
I1011
tp3499
a(I880
I550
tp3500
a(I397
I335
tp3501
a(I1023
I968
tp3502
a(I788
I640
tp3503
a(I1023
I1023
tp3504
a(I783
I775
tp3505
a(I773
I775
tp3506
a(I855
I845
tp3507
a(I967
I967
tp3508
a(I653
I649
tp3509
a(I738
I741
tp3510
a(I879
I869
tp3511
a(I337
I339
tp3512
a(I678
I655
tp3513
a(I974
I683
tp3514
a(I341
I292
tp3515
asS'UP'
p3516
(lp3517
(I958
I799
tp3518
a(I754
I548
tp3519
a(I1023
I1023
tp3520
a(I848
I837
tp3521
a(I555
I558
tp3522
a(I1023
I1023
tp3523
a(I355
I363
tp3524
a(I901
I903
tp3525
a(I703
I697
tp3526
a(I594
I597
tp3527
a(I1023
I1023
tp3528
a(I588
I591
tp3529
a(I1023
I1023
tp3530
a(I1023
I1023
tp3531
a(I1023
I1023
tp3532
a(I737
I730
tp3533
a(I1023
I1023
tp3534
a(I472
I474
tp3535
a(I1023
I1023
tp3536
a(I428
I431
tp3537
a(I1023
I1023
tp3538
a(I272
I291
tp3539
a(I931
I933
tp3540
a(I602
I599
tp3541
a(I758
I761
tp3542
a(I778
I769
tp3543
a(I644
I647
tp3544
a(I913
I902
tp3545
a(I1023
I1023
tp3546
a(I1023
I1023
tp3547
a(I1023
I1023
tp3548
a(I1023
I1023
tp3549
a(I696
I699
tp3550
a(I762
I754
tp3551
a(I380
I380
tp3552
a(I896
I864
tp3553
a(I596
I226
tp3554
a(I578
I480
tp3555
a(I1014
I961
tp3556
a(I456
I458
tp3557
a(I1023
I1023
tp3558
a(I481
I370
tp3559
a(I596
I572
tp3560
a(I940
I918
tp3561
a(I784
I785
tp3562
a(I681
I675
tp3563
a(I1023
I1023
tp3564
a(I715
I723
tp3565
a(I736
I578
tp3566
a(I496
I485
tp3567
a(I1023
I377
tp3568
a(I406
I325
tp3569
a(I1023
I1017
tp3570
a(I568
I252
tp3571
a(I691
I650
tp3572
a(I828
I727
tp3573
a(I528
I533
tp3574
a(I1012
I1002
tp3575
a(I1023
I1023
tp3576
a(I672
I680
tp3577
a(I787
I780
tp3578
a(I732
I739
tp3579
a(I717
I710
tp3580
a(I1023
I1023
tp3581
a(I1023
I1023
tp3582
a(I648
I644
tp3583
a(I1023
I1023
tp3584
a(I1023
I1023
tp3585
a(I1023
I1023
tp3586
a(I1023
I1023
tp3587
a(I1023
I1023
tp3588
a(I315
I324
tp3589
a(I1023
I1023
tp3590
a(I1023
I1023
tp3591
a(I1023
I1023
tp3592
a(I1023
I1023
tp3593
a(I1023
I1023
tp3594
a(I1023
I1023
tp3595
a(I795
I804
tp3596
a(I420
I423
tp3597
a(I1023
I1023
tp3598
a(I1023
I1023
tp3599
a(I432
I434
tp3600
a(I1023
I1023
tp3601
a(I212
I216
tp3602
a(I1023
I1023
tp3603
a(I1023
I1023
tp3604
a(I1023
I1023
tp3605
a(I1023
I1023
tp3606
a(I1023
I1023
tp3607
a(I1023
I1023
tp3608
a(I1023
I1023
tp3609
a(I846
I853
tp3610
a(I220
I232
tp3611
a(I1023
I1023
tp3612
a(I1023
I1023
tp3613
a(I221
I225
tp3614
a(I1023
I1023
tp3615
a(I1023
I1023
tp3616
a(I1023
I1023
tp3617
a(I1023
I1023
tp3618
a(I1023
I1023
tp3619
a(I1023
I1023
tp3620
a(I862
I871
tp3621
a(I179
I183
tp3622
a(I1023
I1023
tp3623
a(I1023
I1023
tp3624
a(I1023
I1023
tp3625
a(I428
I433
tp3626
a(I700
I692
tp3627
a(I448
I451
tp3628
a(I692
I683
tp3629
a(I1023
I1023
tp3630
a(I258
I263
tp3631
a(I1023
I1023
tp3632
a(I184
I187
tp3633
a(I840
I577
tp3634
a(I401
I45
tp3635
a(I583
I194
tp3636
a(I621
I521
tp3637
a(I602
I0
tp3638
a(I686
I299
tp3639
a(I517
I419
tp3640
a(I795
I520
tp3641
a(I398
I333
tp3642
a(I1018
I713
tp3643
a(I261
I213
tp3644
a(I1023
I1011
tp3645
a(I402
I399
tp3646
a(I1023
I1023
tp3647
a(I730
I749
tp3648
a(I406
I411
tp3649
a(I980
I988
tp3650
a(I201
I205
tp3651
a(I1023
I1023
tp3652
a(I1023
I1023
tp3653
a(I189
I211
tp3654
a(I1023
I1023
tp3655
a(I1023
I1023
tp3656
a(I278
I288
tp3657
a(I1023
I1023
tp3658
a(I1023
I1023
tp3659
a(I332
I341
tp3660
a(I1023
I1023
tp3661
a(I1023
I1023
tp3662
a(I1023
I1023
tp3663
a(I1023
I1023
tp3664
a(I1023
I1023
tp3665
a(I1023
I1023
tp3666
a(I1023
I1023
tp3667
a(I1023
I1023
tp3668
a(I1023
I1023
tp3669
a(I1023
I1023
tp3670
a(I1023
I1023
tp3671
a(I1023
I1023
tp3672
a(I1023
I1023
tp3673
a(I1023
I1023
tp3674
a(I1023
I1023
tp3675
a(I1023
I1023
tp3676
a(I1023
I1023
tp3677
a(I1023
I1023
tp3678
a(I1023
I1023
tp3679
a(I1023
I1023
tp3680
a(I1023
I1023
tp3681
a(I1023
I1023
tp3682
a(I1023
I1023
tp3683
a(I1023
I1023
tp3684
a(I1023
I1023
tp3685
a(I1023
I1023
tp3686
a(I1023
I1023
tp3687
a(I1023
I1023
tp3688
a(I1023
I1023
tp3689
a(I1023
I1023
tp3690
a(I994
I1023
tp3691
a(I180
I187
tp3692
a(I1023
I1013
tp3693
a(I1023
I1023
tp3694
a(I1023
I1023
tp3695
a(I1023
I1023
tp3696
a(I1023
I1023
tp3697
a(I1023
I1023
tp3698
a(I1023
I1023
tp3699
a(I1023
I1023
tp3700
a(I1023
I1023
tp3701
a(I1023
I1023
tp3702
a(I1023
I1023
tp3703
a(I1023
I1023
tp3704
a(I1023
I1023
tp3705
a(I1023
I1023
tp3706
a(I1023
I1023
tp3707
a(I1023
I1023
tp3708
a(I1023
I1023
tp3709
a(I276
I278
tp3710
a(I342
I340
tp3711
a(I590
I585
tp3712
a(I120
I122
tp3713
a(I1023
I912
tp3714
a(I186
I163
tp3715
a(I913
I884
tp3716
a(I1023
I1023
tp3717
a(I496
I502
tp3718
a(I101
I106
tp3719
a(I1023
I1023
tp3720
a(I766
I769
tp3721
a(I159
I162
tp3722
a(I1023
I1023
tp3723
a(I164
I166
tp3724
a(I228
I0
tp3725
a(I1023
I841
tp3726
a(I258
I229
tp3727
a(I880
I850
tp3728
a(I1023
I1023
tp3729
a(I328
I336
tp3730
a(I627
I620
tp3731
a(I479
I485
tp3732
a(I370
I371
tp3733
a(I1023
I1023
tp3734
a(I497
I507
tp3735
a(I348
I351
tp3736
a(I1023
I1023
tp3737
a(I1023
I1023
tp3738
a(I1023
I1023
tp3739
a(I1023
I1023
tp3740
a(I1023
I1023
tp3741
a(I1023
I1023
tp3742
a(I1023
I1023
tp3743
a(I1023
I1023
tp3744
a(I1023
I1023
tp3745
a(I1023
I1023
tp3746
a(I1023
I1023
tp3747
a(I1023
I1023
tp3748
a(I1023
I1023
tp3749
a(I1023
I1023
tp3750
a(I1023
I1023
tp3751
a(I1023
I1023
tp3752
a(I1023
I1023
tp3753
a(I1023
I1023
tp3754
a(I1023
I1023
tp3755
a(I1023
I1023
tp3756
a(I1023
I1023
tp3757
a(I1023
I1023
tp3758
a(I1023
I1023
tp3759
a(I1023
I1023
tp3760
a(I193
I202
tp3761
a(I637
I629
tp3762
a(I1023
I1023
tp3763
a(I326
I331
tp3764
a(I258
I261
tp3765
a(I1023
I1023
tp3766
a(I1023
I1023
tp3767
a(I1023
I1023
tp3768
a(I1023
I1023
tp3769
a(I1023
I1023
tp3770
a(I1023
I1023
tp3771
a(I694
I701
tp3772
a(I145
I149
tp3773
a(I912
I897
tp3774
a(I1023
I1023
tp3775
a(I1023
I1023
tp3776
a(I1023
I1023
tp3777
a(I1023
I1023
tp3778
a(I1023
I1023
tp3779
a(I1023
I1023
tp3780
a(I317
I322
tp3781
a(I200
I205
tp3782
a(I1023
I1023
tp3783
a(I1023
I1023
tp3784
a(I1023
I1023
tp3785
a(I760
I789
tp3786
a(I159
I167
tp3787
a(I801
I789
tp3788
a(I857
I866
tp3789
a(I177
I181
tp3790
a(I810
I796
tp3791
a(I1023
I1023
tp3792
a(I1023
I1023
tp3793
a(I1023
I1023
tp3794
a(I1023
I1023
tp3795
a(I1023
I1023
tp3796
a(I1023
I1023
tp3797
a(I1023
I1023
tp3798
a(I1023
I1023
tp3799
a(I1023
I1023
tp3800
a(I177
I182
tp3801
a(I681
I671
tp3802
a(I1023
I1023
tp3803
a(I1023
I1023
tp3804
a(I1023
I1023
tp3805
a(I1023
I1023
tp3806
a(I986
I995
tp3807
a(I205
I209
tp3808
a(I550
I543
tp3809
a(I1023
I1023
tp3810
a(I1023
I1023
tp3811
a(I1023
I1023
tp3812
a(I1023
I1023
tp3813
a(I1023
I1023
tp3814
a(I180
I184
tp3815
a(I646
I636
tp3816
a(I1023
I1023
tp3817
a(I1023
I1023
tp3818
a(I1023
I1023
tp3819
a(I1023
I1023
tp3820
a(I433
I468
tp3821
a(I88
I98
tp3822
a(I958
I947
tp3823
a(I1023
I1023
tp3824
a(I1023
I1023
tp3825
a(I1023
I1023
tp3826
a(I969
I1003
tp3827
a(I175
I183
tp3828
a(I680
I671
tp3829
a(I1023
I1023
tp3830
a(I1023
I1023
tp3831
a(I1023
I1023
tp3832
a(I1023
I1023
tp3833
a(I1023
I1023
tp3834
a(I980
I981
tp3835
a(I203
I207
tp3836
a(I531
I524
tp3837
a(I1023
I1023
tp3838
a(I158
I163
tp3839
a(I861
I846
tp3840
a(I1023
I1023
tp3841
a(I1023
I1023
tp3842
a(I1023
I1023
tp3843
a(I1023
I1023
tp3844
a(I1023
I1023
tp3845
a(I1023
I1023
tp3846
a(I1023
I1023
tp3847
a(I1023
I1023
tp3848
a(I1023
I1023
tp3849
a(I1023
I1023
tp3850
a(I1023
I1023
tp3851
a(I1023
I1023
tp3852
a(I1023
I1023
tp3853
a(I1023
I34
tp3854
a(I1023
I1023
tp3855
a(I1023
I1023
tp3856
a(I1023
I1023
tp3857
a(I1023
I1023
tp3858
a(I1023
I1023
tp3859
a(I1023
I1023
tp3860
a(I1023
I1023
tp3861
a(I1023
I1023
tp3862
a(I1023
I1023
tp3863
a(I1023
I1023
tp3864
a(I1023
I1023
tp3865
a(I264
I274
tp3866
a(I474
I471
tp3867
a(I878
I895
tp3868
a(I181
I187
tp3869
a(I912
I898
tp3870
a(I350
I356
tp3871
a(I382
I382
tp3872
a(I1023
I1023
tp3873
a(I1023
I1023
tp3874
a(I1023
I1023
tp3875
a(I1023
I1023
tp3876
a(I375
I395
tp3877
a(I264
I272
tp3878
a(I1023
I1023
tp3879
a(I1023
I1023
tp3880
a(I1023
I1023
tp3881
a(I1023
I1023
tp3882
a(I1023
I1023
tp3883
a(I1023
I1023
tp3884
a(I1023
I1023
tp3885
a(I1023
I1023
tp3886
a(I1023
I1023
tp3887
a(I1023
I1023
tp3888
a(I1023
I1023
tp3889
a(I1023
I1023
tp3890
a(I670
I722
tp3891
a(I141
I153
tp3892
a(I893
I882
tp3893
a(I1023
I1023
tp3894
a(I1023
I1023
tp3895
a(I1023
I1023
tp3896
a(I1023
I1023
tp3897
a(I1023
I1023
tp3898
a(I1023
I1023
tp3899
a(I377
I415
tp3900
a(I74
I85
tp3901
a(I1023
I1023
tp3902
a(I1023
I1023
tp3903
a(I1023
I1023
tp3904
a(I1023
I1023
tp3905
a(I503
I535
tp3906
a(I105
I113
tp3907
a(I1023
I1023
tp3908
a(I184
I185
tp3909
a(I768
I754
tp3910
a(I1023
I1023
tp3911
a(I1023
I1023
tp3912
a(I1023
I1023
tp3913
a(I1023
I1023
tp3914
a(I1023
I1023
tp3915
a(I1023
I1023
tp3916
a(I1023
I1023
tp3917
a(I1023
I1023
tp3918
a(I171
I189
tp3919
a(I675
I670
tp3920
a(I1023
I1023
tp3921
a(I1023
I1023
tp3922
a(I1023
I1023
tp3923
a(I1023
I1023
tp3924
a(I923
I980
tp3925
a(I193
I206
tp3926
a(I574
I569
tp3927
a(I1023
I1023
tp3928
a(I1023
I1023
tp3929
a(I1023
I1023
tp3930
a(I184
I199
tp3931
a(I650
I644
tp3932
a(I1023
I1023
tp3933
a(I1023
I1023
tp3934
a(I1023
I1023
tp3935
a(I1023
I1023
tp3936
a(I1023
I1023
tp3937
a(I1023
I1023
tp3938
a(I1023
I1023
tp3939
a(I181
I184
tp3940
a(I632
I622
tp3941
a(I1023
I1023
tp3942
a(I1023
I1023
tp3943
a(I1023
I1023
tp3944
a(I1023
I1023
tp3945
a(I191
I204
tp3946
a(I585
I580
tp3947
a(I1023
I1023
tp3948
a(I1023
I1023
tp3949
a(I1023
I1023
tp3950
a(I1023
I1023
tp3951
a(I252
I273
tp3952
a(I328
I333
tp3953
a(I1023
I1023
tp3954
a(I1023
I1023
tp3955
a(I1023
I1023
tp3956
a(I1023
I1023
tp3957
a(I906
I958
tp3958
a(I189
I201
tp3959
a(I590
I586
tp3960
a(I1023
I1023
tp3961
a(I1023
I1023
tp3962
a(I1023
I1023
tp3963
a(I938
I1015
tp3964
a(I170
I185
tp3965
a(I707
I700
tp3966
a(I859
I867
tp3967
a(I177
I181
tp3968
a(I794
I781
tp3969
a(I954
I962
tp3970
a(I196
I201
tp3971
a(I787
I774
tp3972
a(I1023
I1023
tp3973
a(I1023
I1023
tp3974
a(I1023
I1023
tp3975
a(I1023
I1023
tp3976
a(I1023
I1023
tp3977
a(I1023
I1023
tp3978
a(I1023
I1023
tp3979
a(I1023
I1023
tp3980
a(I1023
I1023
tp3981
a(I1023
I1023
tp3982
a(I191
I197
tp3983
a(I629
I621
tp3984
a(I1023
I1023
tp3985
a(I1023
I1023
tp3986
a(I1023
I1023
tp3987
a(I1023
I1023
tp3988
a(I1023
I1023
tp3989
a(I1023
I1023
tp3990
a(I171
I179
tp3991
a(I708
I698
tp3992
a(I1023
I1023
tp3993
a(I1023
I1023
tp3994
a(I1023
I1023
tp3995
a(I734
I772
tp3996
a(I154
I163
tp3997
a(I788
I777
tp3998
a(I418
I422
tp3999
a(I82
I86
tp4000
a(I1023
I1023
tp4001
a(I1023
I1023
tp4002
a(I1023
I1023
tp4003
a(I1023
I1023
tp4004
a(I1023
I1023
tp4005
a(I1023
I1023
tp4006
a(I1023
I1023
tp4007
a(I578
I594
tp4008
a(I121
I127
tp4009
a(I1023
I1009
tp4010
a(I1023
I1023
tp4011
a(I1023
I1023
tp4012
a(I214
I224
tp4013
a(I575
I569
tp4014
a(I1023
I1023
tp4015
a(I1023
I1023
tp4016
a(I1023
I1023
tp4017
asS'UP-RIGHT'
p4018
(lp4019
(I1023
I1023
tp4020
a(I1023
I1023
tp4021
a(I372
I393
tp4022
a(I72
I79
tp4023
a(I1023
I1023
tp4024
a(I1023
I1023
tp4025
a(I1023
I1023
tp4026
a(I1023
I1023
tp4027
a(I1023
I1023
tp4028
a(I273
I285
tp4029
a(I321
I323
tp4030
a(I1023
I1023
tp4031
a(I1023
I1023
tp4032
a(I1023
I1023
tp4033
a(I1023
I1023
tp4034
a(I1023
I1023
tp4035
a(I759
I787
tp4036
a(I159
I167
tp4037
a(I772
I760
tp4038
a(I1023
I1023
tp4039
a(I1023
I1023
tp4040
a(I1023
I1023
tp4041
a(I255
I264
tp4042
a(I387
I386
tp4043
a(I1023
I1023
tp4044
a(I1023
I1023
tp4045
a(I1023
I1023
tp4046
a(I1023
I1023
tp4047
a(I1023
I1023
tp4048
a(I1023
I1023
tp4049
a(I255
I257
tp4050
a(I359
I358
tp4051
a(I1023
I1023
tp4052
a(I245
I254
tp4053
a(I475
I473
tp4054
a(I522
I519
tp4055
a(I105
I108
tp4056
a(I1023
I1023
tp4057
a(I1023
I1023
tp4058
a(I1023
I1023
tp4059
a(I1023
I1023
tp4060
a(I1023
I1023
tp4061
a(I1023
I1023
tp4062
a(I1023
I1023
tp4063
a(I1023
I1023
tp4064
a(I1023
I1023
tp4065
a(I458
I461
tp4066
a(I94
I97
tp4067
a(I993
I978
tp4068
a(I1023
I1023
tp4069
a(I1023
I1023
tp4070
a(I1023
I1023
tp4071
a(I1023
I1023
tp4072
a(I685
I712
tp4073
a(I144
I151
tp4074
a(I869
I856
tp4075
a(I1023
I1023
tp4076
a(I1023
I1023
tp4077
a(I1023
I1023
tp4078
a(I1023
I1023
tp4079
a(I1023
I1023
tp4080
a(I1023
I1023
tp4081
a(I304
I307
tp4082
a(I184
I189
tp4083
a(I1023
I1023
tp4084
a(I304
I308
tp4085
a(I283
I286
tp4086
a(I1023
I1023
tp4087
a(I1023
I1023
tp4088
a(I1023
I1023
tp4089
a(I1023
I1023
tp4090
a(I1023
I1023
tp4091
a(I1023
I1023
tp4092
a(I277
I284
tp4093
a(I309
I310
tp4094
a(I1023
I1023
tp4095
a(I1023
I1023
tp4096
a(I1023
I1023
tp4097
a(I278
I282
tp4098
a(I337
I337
tp4099
a(I1023
I1023
tp4100
a(I1023
I1023
tp4101
a(I1023
I1023
tp4102
a(I371
I392
tp4103
a(I72
I87
tp4104
a(I1023
I1023
tp4105
a(I1023
I1023
tp4106
a(I1023
I1023
tp4107
a(I1023
I1023
tp4108
a(I1023
I1023
tp4109
a(I526
I543
tp4110
a(I110
I116
tp4111
a(I1023
I1023
tp4112
a(I1023
I1023
tp4113
a(I1023
I1023
tp4114
a(I1023
I1023
tp4115
a(I1023
I1023
tp4116
a(I297
I302
tp4117
a(I261
I264
tp4118
a(I1023
I1023
tp4119
a(I1023
I1023
tp4120
a(I1023
I1023
tp4121
a(I1023
I1023
tp4122
a(I896
I906
tp4123
a(I186
I191
tp4124
a(I684
I673
tp4125
a(I1023
I1023
tp4126
a(I1023
I1023
tp4127
a(I1023
I1023
tp4128
a(I1023
I1023
tp4129
a(I252
I257
tp4130
a(I418
I416
tp4131
a(I1023
I1023
tp4132
a(I1023
I1023
tp4133
a(I1023
I1023
tp4134
a(I1023
I1023
tp4135
a(I298
I302
tp4136
a(I278
I281
tp4137
a(I1023
I1023
tp4138
a(I514
I517
tp4139
a(I105
I109
tp4140
a(I1023
I1015
tp4141
a(I420
I424
tp4142
a(I138
I148
tp4143
a(I1023
I1023
tp4144
a(I1023
I1023
tp4145
a(I1023
I1023
tp4146
a(I1023
I1023
tp4147
a(I1023
I1023
tp4148
a(I1023
I1023
tp4149
a(I1023
I1023
tp4150
a(I1023
I1023
tp4151
a(I1023
I1023
tp4152
a(I1023
I1023
tp4153
a(I1023
I1023
tp4154
a(I201
I206
tp4155
a(I602
I593
tp4156
a(I780
I789
tp4157
a(I161
I165
tp4158
a(I896
I881
tp4159
a(I255
I254
tp4160
a(I605
I595
tp4161
a(I404
I401
tp4162
a(I233
I236
tp4163
a(I1023
I1023
tp4164
a(I314
I319
tp4165
a(I495
I491
tp4166
a(I1023
I1023
tp4167
a(I1023
I1023
tp4168
a(I1023
I1023
tp4169
a(I1023
I1023
tp4170
a(I1023
I1023
tp4171
a(I1023
I1023
tp4172
a(I1023
I1023
tp4173
a(I1023
I1023
tp4174
a(I1023
I1023
tp4175
a(I1023
I1023
tp4176
a(I1023
I1023
tp4177
a(I1023
I1023
tp4178
a(I1023
I1023
tp4179
a(I1023
I1023
tp4180
a(I300
I325
tp4181
a(I216
I226
tp4182
a(I687
I683
tp4183
a(I140
I143
tp4184
a(I1014
I998
tp4185
a(I1023
I1023
tp4186
a(I1023
I1023
tp4187
a(I1023
I1023
tp4188
a(I1023
I1023
tp4189
a(I1023
I1023
tp4190
a(I1023
I1023
tp4191
a(I1023
I1023
tp4192
a(I562
I569
tp4193
a(I117
I122
tp4194
a(I1023
I1023
tp4195
a(I1023
I1023
tp4196
a(I1023
I1023
tp4197
a(I1023
I1023
tp4198
a(I1023
I1023
tp4199
a(I489
I503
tp4200
a(I101
I107
tp4201
a(I1023
I1023
tp4202
a(I185
I188
tp4203
a(I770
I757
tp4204
a(I1023
I1023
tp4205
a(I1023
I1023
tp4206
a(I1023
I1023
tp4207
a(I1023
I1023
tp4208
a(I1023
I1023
tp4209
a(I1023
I1023
tp4210
a(I1023
I1023
tp4211
a(I1023
I1023
tp4212
a(I181
I184
tp4213
a(I699
I687
tp4214
a(I311
I308
tp4215
a(I315
I315
tp4216
a(I590
I584
tp4217
a(I120
I122
tp4218
a(I1023
I1023
tp4219
a(I397
I402
tp4220
a(I289
I292
tp4221
a(I1023
I1023
tp4222
a(I1023
I1023
tp4223
a(I1023
I1023
tp4224
a(I1023
I1023
tp4225
a(I1023
I1023
tp4226
a(I1023
I1023
tp4227
a(I1023
I1023
tp4228
a(I1023
I1023
tp4229
a(I1023
I1023
tp4230
a(I1023
I1023
tp4231
a(I1023
I1023
tp4232
a(I1023
I1023
tp4233
a(I253
I257
tp4234
a(I400
I398
tp4235
a(I1023
I1023
tp4236
a(I1023
I1023
tp4237
a(I1023
I1023
tp4238
a(I1023
I1023
tp4239
a(I1023
I1023
tp4240
a(I308
I317
tp4241
a(I189
I196
tp4242
a(I775
I774
tp4243
a(I158
I161
tp4244
a(I878
I863
tp4245
a(I1023
I1023
tp4246
a(I1023
I1023
tp4247
a(I1023
I1023
tp4248
a(I1023
I1023
tp4249
a(I1023
I1023
tp4250
a(I1023
I1023
tp4251
a(I295
I300
tp4252
a(I275
I277
tp4253
a(I796
I800
tp4254
a(I163
I167
tp4255
a(I892
I877
tp4256
a(I339
I339
tp4257
a(I328
I327
tp4258
a(I1023
I1023
tp4259
a(I1023
I1023
tp4260
a(I1023
I1023
tp4261
a(I1023
I1023
tp4262
a(I1023
I1023
tp4263
a(I1023
I1023
tp4264
a(I1023
I1023
tp4265
a(I1023
I1023
tp4266
a(I1023
I1023
tp4267
a(I332
I338
tp4268
a(I191
I197
tp4269
a(I1023
I1023
tp4270
a(I1023
I1023
tp4271
a(I1023
I1023
tp4272
a(I1023
I1023
tp4273
a(I1023
I1023
tp4274
a(I1023
I1023
tp4275
a(I221
I225
tp4276
a(I527
I520
tp4277
a(I463
I459
tp4278
a(I91
I94
tp4279
a(I1023
I1023
tp4280
a(I170
I171
tp4281
a(I914
I897
tp4282
a(I1023
I1023
tp4283
a(I1023
I1023
tp4284
a(I1023
I1023
tp4285
a(I1023
I1023
tp4286
a(I1023
I1023
tp4287
a(I1023
I1023
tp4288
a(I1023
I1023
tp4289
a(I1023
I1023
tp4290
a(I1023
I1023
tp4291
a(I1023
I1023
tp4292
a(I210
I213
tp4293
a(I599
I590
tp4294
a(I1023
I1023
tp4295
a(I1023
I1023
tp4296
a(I1023
I1023
tp4297
a(I1023
I1023
tp4298
a(I1023
I1023
tp4299
a(I1023
I1023
tp4300
a(I345
I348
tp4301
a(I119
I128
tp4302
a(I914
I917
tp4303
a(I186
I190
tp4304
a(I743
I730
tp4305
a(I342
I340
tp4306
a(I277
I278
tp4307
a(I1023
I1023
tp4308
a(I1023
I1023
tp4309
a(I1023
I1023
tp4310
a(I1023
I1023
tp4311
a(I1023
I1023
tp4312
a(I1023
I1023
tp4313
a(I1023
I1023
tp4314
a(I1023
I1023
tp4315
a(I1023
I1023
tp4316
a(I1023
I1023
tp4317
a(I1023
I1023
tp4318
a(I662
I670
tp4319
a(I139
I143
tp4320
a(I845
I830
tp4321
a(I319
I318
tp4322
a(I218
I221
tp4323
a(I610
I603
tp4324
a(I124
I125
tp4325
a(I920
I897
tp4326
a(I184
I184
tp4327
a(I866
I849
tp4328
a(I248
I246
tp4329
a(I672
I660
tp4330
a(I403
I401
tp4331
a(I294
I295
tp4332
a(I618
I612
tp4333
a(I125
I128
tp4334
a(I975
I966
tp4335
a(I197
I199
tp4336
a(I1011
I996
tp4337
a(I1023
I1023
tp4338
a(I1023
I1023
tp4339
a(I1023
I1023
tp4340
a(I1023
I1023
tp4341
a(I1023
I1023
tp4342
a(I1023
I1023
tp4343
a(I1023
I1023
tp4344
a(I1023
I1023
tp4345
a(I1023
I1023
tp4346
a(I1023
I1023
tp4347
a(I175
I177
tp4348
a(I1023
I1023
tp4349
a(I175
I178
tp4350
a(I1023
I1023
tp4351
a(I1023
I1023
tp4352
a(I1023
I1023
tp4353
a(I1023
I1023
tp4354
a(I1023
I1023
tp4355
a(I1023
I1023
tp4356
a(I1023
I1023
tp4357
a(I175
I177
tp4358
a(I1023
I1023
tp4359
a(I175
I178
tp4360
a(I1023
I1023
tp4361
a(I1023
I1023
tp4362
a(I1023
I1023
tp4363
a(I1023
I1023
tp4364
a(I1023
I1023
tp4365
a(I1023
I1023
tp4366
a(I1023
I1023
tp4367
a(I1023
I1023
tp4368
a(I1023
I1023
tp4369
a(I1023
I1023
tp4370
a(I1023
I1023
tp4371
a(I1023
I1023
tp4372
a(I1023
I1023
tp4373
a(I1023
I1023
tp4374
a(I1023
I1023
tp4375
a(I1023
I1023
tp4376
a(I1023
I1023
tp4377
a(I1023
I1023
tp4378
a(I1023
I1023
tp4379
a(I1023
I1023
tp4380
a(I1023
I1023
tp4381
a(I1023
I1023
tp4382
a(I317
I351
tp4383
a(I87
I105
tp4384
a(I965
I958
tp4385
a(I195
I197
tp4386
a(I727
I715
tp4387
a(I1023
I1023
tp4388
a(I1023
I1023
tp4389
a(I1023
I1023
tp4390
a(I1023
I1023
tp4391
a(I1023
I1023
tp4392
a(I1023
I1023
tp4393
a(I966
I1023
tp4394
a(I175
I187
tp4395
a(I659
I653
tp4396
a(I1023
I1023
tp4397
a(I1023
I1023
tp4398
a(I1023
I1023
tp4399
a(I1023
I1023
tp4400
a(I1023
I1023
tp4401
a(I173
I176
tp4402
a(I675
I664
tp4403
a(I943
I951
tp4404
a(I194
I198
tp4405
a(I717
I705
tp4406
a(I1023
I1023
tp4407
a(I1023
I1023
tp4408
a(I1023
I1023
tp4409
a(I1023
I1023
tp4410
a(I1023
I1023
tp4411
a(I1023
I1023
tp4412
a(I1023
I1023
tp4413
a(I1023
I1023
tp4414
a(I1023
I1023
tp4415
a(I1023
I1023
tp4416
a(I499
I519
tp4417
a(I103
I110
tp4418
a(I999
I986
tp4419
a(I1023
I1023
tp4420
a(I1023
I1023
tp4421
a(I1023
I1023
tp4422
a(I1023
I1023
tp4423
a(I668
I696
tp4424
a(I140
I148
tp4425
a(I753
I743
tp4426
a(I377
I377
tp4427
a(I71
I74
tp4428
a(I1023
I1023
tp4429
a(I173
I175
tp4430
a(I806
I791
tp4431
a(I310
I308
tp4432
a(I376
I374
tp4433
a(I718
I726
tp4434
a(I147
I151
tp4435
a(I1023
I1023
tp4436
a(I889
I919
tp4437
a(I184
I192
tp4438
a(I927
I914
tp4439
a(I1023
I1023
tp4440
a(I1023
I1023
tp4441
a(I1023
I1023
tp4442
a(I1023
I1023
tp4443
a(I1023
I1023
tp4444
a(I1023
I1023
tp4445
a(I1023
I1023
tp4446
a(I1023
I1023
tp4447
a(I1023
I1023
tp4448
a(I1023
I1023
tp4449
a(I1023
I1023
tp4450
a(I1023
I1023
tp4451
a(I1023
I1023
tp4452
a(I1023
I1023
tp4453
a(I1023
I1023
tp4454
a(I1023
I1023
tp4455
a(I732
I752
tp4456
a(I153
I160
tp4457
a(I724
I712
tp4458
a(I388
I387
tp4459
a(I73
I77
tp4460
a(I1023
I1023
tp4461
a(I1023
I1023
tp4462
a(I1023
I1023
tp4463
a(I1023
I1023
tp4464
a(I1023
I1023
tp4465
a(I1023
I1023
tp4466
a(I305
I310
tp4467
a(I170
I177
tp4468
a(I1023
I1023
tp4469
a(I1023
I1023
tp4470
a(I1023
I1023
tp4471
a(I1023
I1023
tp4472
a(I1023
I1023
tp4473
a(I1023
I1023
tp4474
a(I323
I326
tp4475
a(I58
I77
tp4476
a(I1023
I1023
tp4477
a(I1023
I1023
tp4478
a(I1023
I1023
tp4479
a(I1023
I1023
tp4480
a(I1023
I1023
tp4481
a(I204
I208
tp4482
a(I493
I488
tp4483
a(I440
I436
tp4484
a(I85
I89
tp4485
a(I786
I765
tp4486
a(I157
I157
tp4487
a(I926
I908
tp4488
a(I201
I199
tp4489
a(I782
I767
tp4490
a(I393
I397
tp4491
a(I234
I239
tp4492
a(I781
I790
tp4493
a(I159
I164
tp4494
a(I1023
I1023
tp4495
a(I1023
I1023
tp4496
a(I1023
I1023
tp4497
a(I1023
I1023
tp4498
a(I1023
I1023
tp4499
a(I1023
I1023
tp4500
a(I1023
I1023
tp4501
a(I1023
I1023
tp4502
a(I1023
I1023
tp4503
a(I1023
I1023
tp4504
a(I1023
I1023
tp4505
a(I1023
I1023
tp4506
a(I1023
I1023
tp4507
a(I1023
I1023
tp4508
a(I1023
I1023
tp4509
a(I1023
I1023
tp4510
a(I246
I251
tp4511
a(I360
I360
tp4512
a(I949
I956
tp4513
a(I195
I199
tp4514
a(I679
I668
tp4515
a(I1023
I1023
tp4516
a(I1023
I1023
tp4517
a(I1023
I1023
tp4518
a(I1023
I1023
tp4519
asS'BLINK'
p4520
(lp4521
(I1023
I1023
tp4522
a(I1023
I1023
tp4523
a(I1023
I1023
tp4524
a(I1023
I1023
tp4525
a(I1023
I1023
tp4526
a(I992
I1013
tp4527
a(I179
I185
tp4528
a(I640
I632
tp4529
a(I376
I374
tp4530
a(I70
I73
tp4531
a(I1023
I1023
tp4532
a(I166
I167
tp4533
a(I858
I842
tp4534
a(I282
I281
tp4535
a(I476
I470
tp4536
a(I433
I428
tp4537
a(I162
I169
tp4538
a(I1023
I1023
tp4539
a(I1023
I1023
tp4540
a(I1023
I1023
tp4541
a(I1023
I1023
tp4542
a(I1023
I1023
tp4543
a(I1023
I1023
tp4544
a(I1023
I1023
tp4545
a(I1023
I1023
tp4546
a(I1023
I1023
tp4547
a(I1023
I1023
tp4548
a(I1023
I1023
tp4549
a(I1023
I1023
tp4550
a(I1023
I1023
tp4551
a(I1023
I1023
tp4552
a(I604
I612
tp4553
a(I126
I131
tp4554
a(I920
I905
tp4555
a(I1023
I1023
tp4556
a(I1023
I1023
tp4557
a(I1023
I1023
tp4558
a(I1023
I1023
tp4559
a(I1023
I1023
tp4560
a(I346
I362
tp4561
a(I65
I72
tp4562
a(I953
I930
tp4563
a(I190
I191
tp4564
a(I669
I657
tp4565
a(I329
I326
tp4566
a(I257
I258
tp4567
a(I723
I723
tp4568
a(I147
I150
tp4569
a(I1013
I998
tp4570
a(I223
I224
tp4571
a(I740
I727
tp4572
a(I1023
I1023
tp4573
a(I1023
I1023
tp4574
a(I1023
I1023
tp4575
a(I1023
I1023
tp4576
a(I1023
I1023
tp4577
a(I1023
I1023
tp4578
a(I1023
I1023
tp4579
a(I1023
I1023
tp4580
a(I1023
I1023
tp4581
a(I1023
I1023
tp4582
a(I1023
I1023
tp4583
a(I1023
I1023
tp4584
a(I1023
I1023
tp4585
a(I1023
I1023
tp4586
a(I879
I887
tp4587
a(I183
I187
tp4588
a(I631
I621
tp4589
a(I1023
I1023
tp4590
a(I1023
I1023
tp4591
a(I1023
I1023
tp4592
a(I351
I356
tp4593
a(I66
I71
tp4594
a(I1023
I1023
tp4595
a(I194
I196
tp4596
a(I675
I664
tp4597
a(I386
I383
tp4598
a(I160
I167
tp4599
a(I1023
I1023
tp4600
a(I549
I555
tp4601
a(I113
I117
tp4602
a(I1023
I1023
tp4603
a(I1023
I1023
tp4604
a(I1023
I1023
tp4605
a(I1023
I1023
tp4606
a(I1023
I1023
tp4607
a(I1023
I1023
tp4608
a(I1023
I1023
tp4609
a(I1023
I1023
tp4610
a(I1023
I1023
tp4611
a(I1023
I1023
tp4612
a(I1023
I1023
tp4613
a(I891
I901
tp4614
a(I186
I190
tp4615
a(I634
I625
tp4616
a(I516
I520
tp4617
a(I105
I109
tp4618
a(I1023
I1023
tp4619
a(I1023
I1023
tp4620
a(I1023
I1023
tp4621
a(I1023
I1023
tp4622
a(I1023
I1023
tp4623
a(I1023
I1023
tp4624
a(I1023
I1023
tp4625
a(I1023
I1023
tp4626
a(I1023
I1023
tp4627
a(I258
I262
tp4628
a(I306
I307
tp4629
a(I1023
I1023
tp4630
a(I1023
I1023
tp4631
a(I1023
I1023
tp4632
a(I575
I578
tp4633
a(I120
I124
tp4634
a(I995
I980
tp4635
a(I244
I243
tp4636
a(I501
I495
tp4637
a(I534
I533
tp4638
a(I108
I111
tp4639
a(I1022
I1006
tp4640
a(I154
I155
tp4641
a(I1023
I1013
tp4642
a(I176
I177
tp4643
a(I989
I974
tp4644
a(I1023
I1023
tp4645
a(I1023
I1023
tp4646
a(I1023
I1023
tp4647
a(I1023
I1023
tp4648
a(I1023
I1023
tp4649
a(I1023
I1023
tp4650
a(I1023
I1023
tp4651
a(I1023
I1023
tp4652
a(I1023
I1023
tp4653
a(I1023
I1023
tp4654
a(I1023
I1023
tp4655
a(I1023
I1023
tp4656
a(I1023
I1023
tp4657
a(I1023
I1023
tp4658
a(I160
I164
tp4659
a(I771
I759
tp4660
a(I379
I378
tp4661
a(I99
I110
tp4662
a(I1023
I1023
tp4663
a(I1023
I1023
tp4664
a(I1023
I1023
tp4665
a(I1023
I1023
tp4666
a(I1023
I1023
tp4667
a(I1023
I1023
tp4668
a(I1023
I1023
tp4669
a(I1023
I1023
tp4670
a(I1023
I1023
tp4671
a(I897
I899
tp4672
a(I187
I190
tp4673
a(I581
I573
tp4674
a(I453
I450
tp4675
a(I89
I93
tp4676
a(I1022
I1007
tp4677
a(I189
I190
tp4678
a(I751
I737
tp4679
a(I1023
I1023
tp4680
a(I1023
I1023
tp4681
a(I1023
I1023
tp4682
a(I1023
I1023
tp4683
a(I1023
I1023
tp4684
a(I1023
I1023
tp4685
a(I1023
I1023
tp4686
a(I1023
I1023
tp4687
a(I868
I871
tp4688
a(I180
I184
tp4689
a(I649
I638
tp4690
a(I787
I794
tp4691
a(I162
I166
tp4692
a(I828
I814
tp4693
a(I308
I307
tp4694
a(I368
I365
tp4695
a(I567
I562
tp4696
a(I114
I117
tp4697
a(I861
I845
tp4698
a(I173
I173
tp4699
a(I992
I976
tp4700
a(I254
I254
tp4701
a(I728
I715
tp4702
a(I1023
I1023
tp4703
a(I1023
I1023
tp4704
a(I1023
I1023
tp4705
a(I1023
I1023
tp4706
a(I1023
I1023
tp4707
a(I1023
I1023
tp4708
a(I1023
I1023
tp4709
a(I1023
I1023
tp4710
a(I1023
I1023
tp4711
a(I1023
I1023
tp4712
a(I1023
I1023
tp4713
a(I1023
I1023
tp4714
a(I1023
I1023
tp4715
a(I1023
I1023
tp4716
a(I1023
I1023
tp4717
a(I1023
I1023
tp4718
a(I205
I213
tp4719
a(I538
I533
tp4720
a(I1023
I1023
tp4721
a(I1023
I1023
tp4722
a(I1023
I1023
tp4723
a(I1023
I1023
tp4724
a(I1023
I1023
tp4725
a(I933
I941
tp4726
a(I194
I198
tp4727
a(I552
I545
tp4728
a(I489
I487
tp4729
a(I98
I101
tp4730
a(I1023
I1023
tp4731
a(I188
I189
tp4732
a(I777
I763
tp4733
a(I281
I279
tp4734
a(I509
I502
tp4735
a(I496
I492
tp4736
a(I99
I102
tp4737
a(I1023
I1023
tp4738
a(I209
I213
tp4739
a(I872
I858
tp4740
a(I336
I335
tp4741
a(I522
I516
tp4742
a(I1023
I1023
tp4743
a(I1023
I1023
tp4744
a(I1023
I1023
tp4745
a(I1023
I1023
tp4746
a(I507
I517
tp4747
a(I104
I110
tp4748
a(I1023
I1023
tp4749
a(I458
I469
tp4750
a(I230
I237
tp4751
a(I582
I576
tp4752
a(I118
I120
tp4753
a(I739
I729
tp4754
a(I150
I151
tp4755
a(I1023
I1023
tp4756
a(I543
I550
tp4757
a(I195
I204
tp4758
a(I759
I763
tp4759
a(I154
I159
tp4760
a(I1023
I1023
tp4761
a(I1023
I1023
tp4762
a(I1023
I1023
tp4763
a(I1023
I1023
tp4764
a(I1023
I1023
tp4765
a(I1023
I1023
tp4766
a(I1023
I1023
tp4767
a(I1023
I1023
tp4768
a(I1023
I1023
tp4769
a(I1023
I1023
tp4770
a(I1023
I1023
tp4771
a(I925
I926
tp4772
a(I192
I195
tp4773
a(I454
I445
tp4774
a(I400
I0
tp4775
a(I396
I137
tp4776
a(I167
I103
tp4777
a(I246
I0
tp4778
a(I319
I191
tp4779
a(I347
I0
tp4780
a(I606
I360
tp4781
a(I497
I0
tp4782
a(I511
I212
tp4783
a(I217
I141
tp4784
a(I335
I36
tp4785
a(I392
I263
tp4786
a(I844
I345
tp4787
a(I241
I89
tp4788
a(I463
I0
tp4789
a(I413
I63
tp4790
a(I411
I265
tp4791
a(I427
I0
tp4792
a(I977
I653
tp4793
a(I208
I149
tp4794
a(I603
I403
tp4795
a(I638
I0
tp4796
a(I679
I337
tp4797
a(I339
I243
tp4798
a(I1023
I459
tp4799
a(I249
I147
tp4800
a(I639
I581
tp4801
a(I494
I354
tp4802
a(I422
I373
tp4803
a(I878
I775
tp4804
a(I270
I251
tp4805
a(I800
I774
tp4806
a(I321
I130
tp4807
a(I474
I393
tp4808
a(I851
I665
tp4809
a(I256
I217
tp4810
a(I756
I610
tp4811
a(I482
I278
tp4812
a(I468
I394
tp4813
a(I874
I690
tp4814
a(I310
I271
tp4815
a(I1023
I909
tp4816
a(I323
I208
tp4817
a(I640
I587
tp4818
a(I599
I552
tp4819
a(I440
I426
tp4820
a(I898
I878
tp4821
a(I309
I307
tp4822
a(I1023
I1023
tp4823
a(I325
I328
tp4824
a(I707
I711
tp4825
a(I495
I494
tp4826
a(I727
I731
tp4827
a(I469
I469
tp4828
a(I1023
I1023
tp4829
a(I1023
I1023
tp4830
a(I1023
I1023
tp4831
a(I1023
I1023
tp4832
a(I1023
I1023
tp4833
a(I1023
I1023
tp4834
a(I1023
I1023
tp4835
a(I1023
I1023
tp4836
a(I1023
I1023
tp4837
a(I1023
I1023
tp4838
a(I1023
I1023
tp4839
a(I1023
I1023
tp4840
a(I1023
I1023
tp4841
a(I1023
I1023
tp4842
a(I1023
I1023
tp4843
a(I1023
I1023
tp4844
a(I1023
I1023
tp4845
a(I1023
I1023
tp4846
a(I1023
I1023
tp4847
a(I1023
I1023
tp4848
a(I1023
I1023
tp4849
a(I1023
I1023
tp4850
a(I779
I788
tp4851
a(I163
I167
tp4852
a(I917
I906
tp4853
a(I186
I188
tp4854
a(I978
I961
tp4855
a(I197
I197
tp4856
a(I1023
I885
tp4857
a(I609
I610
tp4858
a(I125
I128
tp4859
a(I928
I926
tp4860
a(I1023
I1023
tp4861
a(I1023
I1023
tp4862
a(I1023
I1023
tp4863
a(I1023
I1023
tp4864
a(I1023
I1023
tp4865
a(I353
I355
tp4866
a(I353
I353
tp4867
a(I609
I610
tp4868
a(I125
I128
tp4869
a(I928
I926
tp4870
a(I188
I191
tp4871
a(I1021
I1007
tp4872
a(I216
I218
tp4873
a(I968
I952
tp4874
a(I312
I315
tp4875
a(I692
I682
tp4876
a(I1023
I1023
tp4877
a(I162
I166
tp4878
a(I1023
I1023
tp4879
a(I1023
I1023
tp4880
a(I1023
I1023
tp4881
a(I1023
I1023
tp4882
a(I1023
I1023
tp4883
a(I1023
I1023
tp4884
a(I1023
I1023
tp4885
a(I1023
I1023
tp4886
a(I1023
I1023
tp4887
a(I1023
I1023
tp4888
a(I1023
I1023
tp4889
a(I1023
I1023
tp4890
a(I1023
I1023
tp4891
a(I1023
I1023
tp4892
a(I1023
I1023
tp4893
a(I1023
I1023
tp4894
a(I1023
I1023
tp4895
a(I1023
I1023
tp4896
a(I1023
I1023
tp4897
a(I1023
I1023
tp4898
a(I1023
I1023
tp4899
a(I1023
I1023
tp4900
a(I1023
I1023
tp4901
a(I1023
I1023
tp4902
a(I1023
I1023
tp4903
a(I1023
I1023
tp4904
a(I319
I324
tp4905
a(I58
I62
tp4906
a(I1023
I1023
tp4907
a(I1023
I1023
tp4908
a(I1023
I1023
tp4909
a(I912
I914
tp4910
a(I189
I193
tp4911
a(I569
I560
tp4912
a(I494
I494
tp4913
a(I99
I102
tp4914
a(I1023
I1023
tp4915
a(I1023
I1023
tp4916
a(I1023
I1023
tp4917
a(I1023
I1023
tp4918
a(I1023
I1023
tp4919
a(I1023
I1023
tp4920
a(I1023
I1023
tp4921
a(I352
I362
tp4922
a(I67
I72
tp4923
a(I1023
I1023
tp4924
a(I1023
I1023
tp4925
a(I1023
I1023
tp4926
a(I1023
I1023
tp4927
a(I1023
I1023
tp4928
a(I1023
I1023
tp4929
a(I1023
I1023
tp4930
a(I1023
I1023
tp4931
a(I1023
I1023
tp4932
a(I1023
I1023
tp4933
a(I1023
I1023
tp4934
a(I167
I169
tp4935
a(I182
I0
tp4936
a(I190
I0
tp4937
a(I235
I0
tp4938
a(I315
I0
tp4939
a(I357
I0
tp4940
a(I430
I0
tp4941
a(I467
I0
tp4942
a(I551
I0
tp4943
a(I604
I0
tp4944
a(I633
I0
tp4945
a(I584
I0
tp4946
a(I555
I0
tp4947
a(I511
I0
tp4948
a(I491
I0
tp4949
a(I451
I0
tp4950
a(I430
I0
tp4951
a(I401
I0
tp4952
a(I373
I0
tp4953
a(I350
I0
tp4954
a(I396
I0
tp4955
a(I509
I0
tp4956
a(I592
I0
tp4957
a(I697
I0
tp4958
a(I792
I0
tp4959
a(I716
I0
tp4960
a(I649
I0
tp4961
a(I612
I0
tp4962
a(I554
I0
tp4963
a(I525
I0
tp4964
a(I497
I0
tp4965
a(I484
I0
tp4966
a(I473
I0
tp4967
a(I455
I0
tp4968
a(I444
I0
tp4969
a(I419
I0
tp4970
a(I476
I0
tp4971
a(I510
I0
tp4972
a(I570
I0
tp4973
a(I619
I0
tp4974
a(I664
I0
tp4975
a(I710
I0
tp4976
a(I748
I0
tp4977
a(I801
I0
tp4978
a(I826
I0
tp4979
a(I868
I0
tp4980
a(I886
I0
tp4981
a(I927
I0
tp4982
a(I958
I0
tp4983
a(I996
I0
tp4984
a(I991
I0
tp4985
a(I981
I0
tp4986
a(I959
I0
tp4987
a(I956
I0
tp4988
a(I946
I0
tp4989
a(I953
I0
tp4990
a(I930
I0
tp4991
a(I930
I0
tp4992
a(I906
I0
tp4993
a(I889
I0
tp4994
a(I862
I0
tp4995
a(I837
I0
tp4996
a(I814
I0
tp4997
a(I788
I0
tp4998
a(I777
I0
tp4999
a(I754
I0
tp5000
a(I746
I0
tp5001
a(I715
I0
tp5002
a(I700
I0
tp5003
a(I686
I0
tp5004
a(I675
I0
tp5005
a(I659
I0
tp5006
a(I644
I0
tp5007
a(I629
I0
tp5008
a(I607
I0
tp5009
a(I671
I0
tp5010
a(I730
I0
tp5011
a(I793
I0
tp5012
a(I836
I0
tp5013
a(I928
I0
tp5014
a(I1010
I0
tp5015
a(I1023
I0
tp5016
a(I871
I0
tp5017
a(I791
I0
tp5018
a(I731
I0
tp5019
a(I667
I0
tp5020
a(I663
I0
tp5021
as.